

Microchip Technology PIC LITE Macro Assembler V1.38 build -256452561 
                                                                                               Tue Nov 22 17:36:15 2016

Microchip Technology Omniscient Code Generator v1.38 (Free mode) build 201607010351
     1                           	processor	16F18855
     2                           	opt	pw 120
     3                           	opt	lm
     4                           	psect	idataCOMMON,global,class=CODE,delta=2
     5                           	psect	cinit,global,class=CODE,merge=1,delta=2
     6                           	psect	bssCOMMON,global,class=COMMON,space=1,delta=1
     7                           	psect	dataCOMMON,global,class=COMMON,space=1,delta=1
     8                           	psect	cstackCOMMON,global,class=COMMON,space=1,delta=1
     9                           	psect	maintext,global,class=CODE,merge=1,split=1,delta=2
    10                           	psect	text1,local,class=CODE,merge=1,delta=2
    11                           	psect	text2,local,class=CODE,merge=1,delta=2
    12                           	psect	text3,local,class=CODE,merge=1,delta=2
    13                           	psect	text4,local,class=CODE,merge=1,delta=2
    14                           	psect	text5,local,class=CODE,merge=1,delta=2
    15                           	psect	text6,local,class=CODE,merge=1,delta=2
    16                           	psect	text7,local,class=CODE,merge=1,delta=2
    17                           	psect	text8,local,class=CODE,merge=1,delta=2
    18                           	dabs	1,0x7E,2
    19  0000                     	;# 
    20  0001                     	;# 
    21  0002                     	;# 
    22  0003                     	;# 
    23  0004                     	;# 
    24  0005                     	;# 
    25  0006                     	;# 
    26  0007                     	;# 
    27  0008                     	;# 
    28  0009                     	;# 
    29  000A                     	;# 
    30  000B                     	;# 
    31  000C                     	;# 
    32  000D                     	;# 
    33  000E                     	;# 
    34  0010                     	;# 
    35  0011                     	;# 
    36  0012                     	;# 
    37  0013                     	;# 
    38  0016                     	;# 
    39  0017                     	;# 
    40  0018                     	;# 
    41  001C                     	;# 
    42  001C                     	;# 
    43  001D                     	;# 
    44  001D                     	;# 
    45  001E                     	;# 
    46  001F                     	;# 
    47  008C                     	;# 
    48  008C                     	;# 
    49  008D                     	;# 
    50  008E                     	;# 
    51  008E                     	;# 
    52  008F                     	;# 
    53  0090                     	;# 
    54  0090                     	;# 
    55  0091                     	;# 
    56  0093                     	;# 
    57  0094                     	;# 
    58  0095                     	;# 
    59  0096                     	;# 
    60  0097                     	;# 
    61  0098                     	;# 
    62  0099                     	;# 
    63  009A                     	;# 
    64  009B                     	;# 
    65  009C                     	;# 
    66  009D                     	;# 
    67  009E                     	;# 
    68  010C                     	;# 
    69  010D                     	;# 
    70  010E                     	;# 
    71  010E                     	;# 
    72  010F                     	;# 
    73  0110                     	;# 
    74  0110                     	;# 
    75  0111                     	;# 
    76  0112                     	;# 
    77  0112                     	;# 
    78  0113                     	;# 
    79  0114                     	;# 
    80  0114                     	;# 
    81  0115                     	;# 
    82  0116                     	;# 
    83  0116                     	;# 
    84  0117                     	;# 
    85  0119                     	;# 
    86  0119                     	;# 
    87  0119                     	;# 
    88  011A                     	;# 
    89  011A                     	;# 
    90  011A                     	;# 
    91  011B                     	;# 
    92  011B                     	;# 
    93  011B                     	;# 
    94  011B                     	;# 
    95  011B                     	;# 
    96  011C                     	;# 
    97  011C                     	;# 
    98  011C                     	;# 
    99  011D                     	;# 
   100  011D                     	;# 
   101  011D                     	;# 
   102  011E                     	;# 
   103  011E                     	;# 
   104  011E                     	;# 
   105  011F                     	;# 
   106  011F                     	;# 
   107  011F                     	;# 
   108  011F                     	;# 
   109  011F                     	;# 
   110  018C                     	;# 
   111  018D                     	;# 
   112  018E                     	;# 
   113  018F                     	;# 
   114  0190                     	;# 
   115  0191                     	;# 
   116  0192                     	;# 
   117  0196                     	;# 
   118  0197                     	;# 
   119  0198                     	;# 
   120  0199                     	;# 
   121  019A                     	;# 
   122  019B                     	;# 
   123  019C                     	;# 
   124  020C                     	;# 
   125  020D                     	;# 
   126  020E                     	;# 
   127  020F                     	;# 
   128  020F                     	;# 
   129  0210                     	;# 
   130  0210                     	;# 
   131  0211                     	;# 
   132  0211                     	;# 
   133  0212                     	;# 
   134  0213                     	;# 
   135  0214                     	;# 
   136  0215                     	;# 
   137  0215                     	;# 
   138  0216                     	;# 
   139  0216                     	;# 
   140  0217                     	;# 
   141  0217                     	;# 
   142  0218                     	;# 
   143  0219                     	;# 
   144  021A                     	;# 
   145  021B                     	;# 
   146  021B                     	;# 
   147  021C                     	;# 
   148  021C                     	;# 
   149  021D                     	;# 
   150  021D                     	;# 
   151  021E                     	;# 
   152  021F                     	;# 
   153  028C                     	;# 
   154  028C                     	;# 
   155  028D                     	;# 
   156  028D                     	;# 
   157  028E                     	;# 
   158  028F                     	;# 
   159  0290                     	;# 
   160  0290                     	;# 
   161  0291                     	;# 
   162  0292                     	;# 
   163  0292                     	;# 
   164  0293                     	;# 
   165  0293                     	;# 
   166  0294                     	;# 
   167  0295                     	;# 
   168  0296                     	;# 
   169  0296                     	;# 
   170  0297                     	;# 
   171  0298                     	;# 
   172  0298                     	;# 
   173  0299                     	;# 
   174  0299                     	;# 
   175  029A                     	;# 
   176  029B                     	;# 
   177  029C                     	;# 
   178  029C                     	;# 
   179  029D                     	;# 
   180  030C                     	;# 
   181  030C                     	;# 
   182  030D                     	;# 
   183  030E                     	;# 
   184  030F                     	;# 
   185  0310                     	;# 
   186  0310                     	;# 
   187  0311                     	;# 
   188  0312                     	;# 
   189  0313                     	;# 
   190  0314                     	;# 
   191  0314                     	;# 
   192  0315                     	;# 
   193  0316                     	;# 
   194  0317                     	;# 
   195  0318                     	;# 
   196  0318                     	;# 
   197  0319                     	;# 
   198  031A                     	;# 
   199  031B                     	;# 
   200  031C                     	;# 
   201  031C                     	;# 
   202  031D                     	;# 
   203  031E                     	;# 
   204  031F                     	;# 
   205  038C                     	;# 
   206  038D                     	;# 
   207  038E                     	;# 
   208  0390                     	;# 
   209  0391                     	;# 
   210  0392                     	;# 
   211  040C                     	;# 
   212  040D                     	;# 
   213  040E                     	;# 
   214  040F                     	;# 
   215  0410                     	;# 
   216  0411                     	;# 
   217  0416                     	;# 
   218  0416                     	;# 
   219  0417                     	;# 
   220  0418                     	;# 
   221  0418                     	;# 
   222  0419                     	;# 
   223  041A                     	;# 
   224  041A                     	;# 
   225  041B                     	;# 
   226  041C                     	;# 
   227  041C                     	;# 
   228  041D                     	;# 
   229  041E                     	;# 
   230  041F                     	;# 
   231  048C                     	;# 
   232  048C                     	;# 
   233  048D                     	;# 
   234  048E                     	;# 
   235  048F                     	;# 
   236  048F                     	;# 
   237  0490                     	;# 
   238  0491                     	;# 
   239  0492                     	;# 
   240  0492                     	;# 
   241  0493                     	;# 
   242  0494                     	;# 
   243  0495                     	;# 
   244  0495                     	;# 
   245  0496                     	;# 
   246  0497                     	;# 
   247  0498                     	;# 
   248  0499                     	;# 
   249  049A                     	;# 
   250  049B                     	;# 
   251  049C                     	;# 
   252  049D                     	;# 
   253  050C                     	;# 
   254  050C                     	;# 
   255  050D                     	;# 
   256  050E                     	;# 
   257  050F                     	;# 
   258  050F                     	;# 
   259  0510                     	;# 
   260  0511                     	;# 
   261  0512                     	;# 
   262  0512                     	;# 
   263  0513                     	;# 
   264  0514                     	;# 
   265  0515                     	;# 
   266  0515                     	;# 
   267  0516                     	;# 
   268  0517                     	;# 
   269  0518                     	;# 
   270  0519                     	;# 
   271  051A                     	;# 
   272  051B                     	;# 
   273  051C                     	;# 
   274  051D                     	;# 
   275  058C                     	;# 
   276  058C                     	;# 
   277  058D                     	;# 
   278  058E                     	;# 
   279  058F                     	;# 
   280  058F                     	;# 
   281  0590                     	;# 
   282  0591                     	;# 
   283  0592                     	;# 
   284  0593                     	;# 
   285  060C                     	;# 
   286  060D                     	;# 
   287  060E                     	;# 
   288  060F                     	;# 
   289  0610                     	;# 
   290  0611                     	;# 
   291  0612                     	;# 
   292  0613                     	;# 
   293  0614                     	;# 
   294  0616                     	;# 
   295  0617                     	;# 
   296  0618                     	;# 
   297  0619                     	;# 
   298  061A                     	;# 
   299  061B                     	;# 
   300  061C                     	;# 
   301  061D                     	;# 
   302  061E                     	;# 
   303  068C                     	;# 
   304  068D                     	;# 
   305  068E                     	;# 
   306  068F                     	;# 
   307  0690                     	;# 
   308  0691                     	;# 
   309  0692                     	;# 
   310  0693                     	;# 
   311  0694                     	;# 
   312  070C                     	;# 
   313  070D                     	;# 
   314  070E                     	;# 
   315  070F                     	;# 
   316  0710                     	;# 
   317  0711                     	;# 
   318  0712                     	;# 
   319  0713                     	;# 
   320  0714                     	;# 
   321  0716                     	;# 
   322  0717                     	;# 
   323  0718                     	;# 
   324  0719                     	;# 
   325  071A                     	;# 
   326  071B                     	;# 
   327  071C                     	;# 
   328  071D                     	;# 
   329  071E                     	;# 
   330  0796                     	;# 
   331  0797                     	;# 
   332  0798                     	;# 
   333  0799                     	;# 
   334  079A                     	;# 
   335  079B                     	;# 
   336  080C                     	;# 
   337  080D                     	;# 
   338  080E                     	;# 
   339  080F                     	;# 
   340  0810                     	;# 
   341  0811                     	;# 
   342  0812                     	;# 
   343  0813                     	;# 
   344  0814                     	;# 
   345  081A                     	;# 
   346  081B                     	;# 
   347  081C                     	;# 
   348  081D                     	;# 
   349  081E                     	;# 
   350  081F                     	;# 
   351  088C                     	;# 
   352  088D                     	;# 
   353  088E                     	;# 
   354  088F                     	;# 
   355  0890                     	;# 
   356  0891                     	;# 
   357  0892                     	;# 
   358  0893                     	;# 
   359  0895                     	;# 
   360  0896                     	;# 
   361  0897                     	;# 
   362  0898                     	;# 
   363  0899                     	;# 
   364  089A                     	;# 
   365  089B                     	;# 
   366  090C                     	;# 
   367  090E                     	;# 
   368  090F                     	;# 
   369  091F                     	;# 
   370  091F                     	;# 
   371  098F                     	;# 
   372  098F                     	;# 
   373  0990                     	;# 
   374  0991                     	;# 
   375  0992                     	;# 
   376  0993                     	;# 
   377  0994                     	;# 
   378  0995                     	;# 
   379  0996                     	;# 
   380  0997                     	;# 
   381  0E0F                     	;# 
   382  0E10                     	;# 
   383  0E11                     	;# 
   384  0E12                     	;# 
   385  0E13                     	;# 
   386  0E14                     	;# 
   387  0E15                     	;# 
   388  0E16                     	;# 
   389  0E17                     	;# 
   390  0E18                     	;# 
   391  0E19                     	;# 
   392  0E1A                     	;# 
   393  0E1B                     	;# 
   394  0E1C                     	;# 
   395  0E1D                     	;# 
   396  0E1E                     	;# 
   397  0E1F                     	;# 
   398  0E20                     	;# 
   399  0E21                     	;# 
   400  0E22                     	;# 
   401  0E23                     	;# 
   402  0E24                     	;# 
   403  0E25                     	;# 
   404  0E26                     	;# 
   405  0E27                     	;# 
   406  0E28                     	;# 
   407  0E29                     	;# 
   408  0E2A                     	;# 
   409  0E2B                     	;# 
   410  0E2C                     	;# 
   411  0E2D                     	;# 
   412  0E2E                     	;# 
   413  0E2F                     	;# 
   414  0E30                     	;# 
   415  0E31                     	;# 
   416  0E32                     	;# 
   417  0E33                     	;# 
   418  0E34                     	;# 
   419  0E35                     	;# 
   420  0E36                     	;# 
   421  0E37                     	;# 
   422  0E8F                     	;# 
   423  0E90                     	;# 
   424  0E91                     	;# 
   425  0E92                     	;# 
   426  0E93                     	;# 
   427  0E94                     	;# 
   428  0E95                     	;# 
   429  0E96                     	;# 
   430  0E97                     	;# 
   431  0E9C                     	;# 
   432  0E9D                     	;# 
   433  0E9E                     	;# 
   434  0EA1                     	;# 
   435  0EA2                     	;# 
   436  0EA3                     	;# 
   437  0EA4                     	;# 
   438  0EA5                     	;# 
   439  0EA9                     	;# 
   440  0EAA                     	;# 
   441  0EAB                     	;# 
   442  0EAC                     	;# 
   443  0EB1                     	;# 
   444  0EB2                     	;# 
   445  0EB3                     	;# 
   446  0EB8                     	;# 
   447  0EB9                     	;# 
   448  0EBA                     	;# 
   449  0EBB                     	;# 
   450  0EBC                     	;# 
   451  0EBD                     	;# 
   452  0EBE                     	;# 
   453  0EC3                     	;# 
   454  0EC5                     	;# 
   455  0EC6                     	;# 
   456  0EC7                     	;# 
   457  0EC8                     	;# 
   458  0EC9                     	;# 
   459  0ECA                     	;# 
   460  0ECB                     	;# 
   461  0ECC                     	;# 
   462  0F10                     	;# 
   463  0F11                     	;# 
   464  0F12                     	;# 
   465  0F13                     	;# 
   466  0F14                     	;# 
   467  0F15                     	;# 
   468  0F16                     	;# 
   469  0F17                     	;# 
   470  0F18                     	;# 
   471  0F19                     	;# 
   472  0F1A                     	;# 
   473  0F1B                     	;# 
   474  0F1C                     	;# 
   475  0F1D                     	;# 
   476  0F1E                     	;# 
   477  0F1F                     	;# 
   478  0F20                     	;# 
   479  0F21                     	;# 
   480  0F22                     	;# 
   481  0F23                     	;# 
   482  0F24                     	;# 
   483  0F25                     	;# 
   484  0F26                     	;# 
   485  0F27                     	;# 
   486  0F38                     	;# 
   487  0F39                     	;# 
   488  0F3A                     	;# 
   489  0F3B                     	;# 
   490  0F3C                     	;# 
   491  0F3D                     	;# 
   492  0F3E                     	;# 
   493  0F3F                     	;# 
   494  0F40                     	;# 
   495  0F41                     	;# 
   496  0F43                     	;# 
   497  0F44                     	;# 
   498  0F45                     	;# 
   499  0F46                     	;# 
   500  0F47                     	;# 
   501  0F48                     	;# 
   502  0F49                     	;# 
   503  0F4A                     	;# 
   504  0F4B                     	;# 
   505  0F4C                     	;# 
   506  0F4E                     	;# 
   507  0F4F                     	;# 
   508  0F50                     	;# 
   509  0F51                     	;# 
   510  0F52                     	;# 
   511  0F53                     	;# 
   512  0F54                     	;# 
   513  0F55                     	;# 
   514  0F56                     	;# 
   515  0F57                     	;# 
   516  0F65                     	;# 
   517  0F68                     	;# 
   518  0F69                     	;# 
   519  0F6A                     	;# 
   520  0F6B                     	;# 
   521  0FE4                     	;# 
   522  0FE5                     	;# 
   523  0FE6                     	;# 
   524  0FE7                     	;# 
   525  0FE8                     	;# 
   526  0FE9                     	;# 
   527  0FEA                     	;# 
   528  0FEB                     	;# 
   529  0FED                     	;# 
   530  0FEE                     	;# 
   531  0FEF                     	;# 
   532  0000                     	;# 
   533  0001                     	;# 
   534  0002                     	;# 
   535  0003                     	;# 
   536  0004                     	;# 
   537  0005                     	;# 
   538  0006                     	;# 
   539  0007                     	;# 
   540  0008                     	;# 
   541  0009                     	;# 
   542  000A                     	;# 
   543  000B                     	;# 
   544  000C                     	;# 
   545  000D                     	;# 
   546  000E                     	;# 
   547  0010                     	;# 
   548  0011                     	;# 
   549  0012                     	;# 
   550  0013                     	;# 
   551  0016                     	;# 
   552  0017                     	;# 
   553  0018                     	;# 
   554  001C                     	;# 
   555  001C                     	;# 
   556  001D                     	;# 
   557  001D                     	;# 
   558  001E                     	;# 
   559  001F                     	;# 
   560  008C                     	;# 
   561  008C                     	;# 
   562  008D                     	;# 
   563  008E                     	;# 
   564  008E                     	;# 
   565  008F                     	;# 
   566  0090                     	;# 
   567  0090                     	;# 
   568  0091                     	;# 
   569  0093                     	;# 
   570  0094                     	;# 
   571  0095                     	;# 
   572  0096                     	;# 
   573  0097                     	;# 
   574  0098                     	;# 
   575  0099                     	;# 
   576  009A                     	;# 
   577  009B                     	;# 
   578  009C                     	;# 
   579  009D                     	;# 
   580  009E                     	;# 
   581  010C                     	;# 
   582  010D                     	;# 
   583  010E                     	;# 
   584  010E                     	;# 
   585  010F                     	;# 
   586  0110                     	;# 
   587  0110                     	;# 
   588  0111                     	;# 
   589  0112                     	;# 
   590  0112                     	;# 
   591  0113                     	;# 
   592  0114                     	;# 
   593  0114                     	;# 
   594  0115                     	;# 
   595  0116                     	;# 
   596  0116                     	;# 
   597  0117                     	;# 
   598  0119                     	;# 
   599  0119                     	;# 
   600  0119                     	;# 
   601  011A                     	;# 
   602  011A                     	;# 
   603  011A                     	;# 
   604  011B                     	;# 
   605  011B                     	;# 
   606  011B                     	;# 
   607  011B                     	;# 
   608  011B                     	;# 
   609  011C                     	;# 
   610  011C                     	;# 
   611  011C                     	;# 
   612  011D                     	;# 
   613  011D                     	;# 
   614  011D                     	;# 
   615  011E                     	;# 
   616  011E                     	;# 
   617  011E                     	;# 
   618  011F                     	;# 
   619  011F                     	;# 
   620  011F                     	;# 
   621  011F                     	;# 
   622  011F                     	;# 
   623  018C                     	;# 
   624  018D                     	;# 
   625  018E                     	;# 
   626  018F                     	;# 
   627  0190                     	;# 
   628  0191                     	;# 
   629  0192                     	;# 
   630  0196                     	;# 
   631  0197                     	;# 
   632  0198                     	;# 
   633  0199                     	;# 
   634  019A                     	;# 
   635  019B                     	;# 
   636  019C                     	;# 
   637  020C                     	;# 
   638  020D                     	;# 
   639  020E                     	;# 
   640  020F                     	;# 
   641  020F                     	;# 
   642  0210                     	;# 
   643  0210                     	;# 
   644  0211                     	;# 
   645  0211                     	;# 
   646  0212                     	;# 
   647  0213                     	;# 
   648  0214                     	;# 
   649  0215                     	;# 
   650  0215                     	;# 
   651  0216                     	;# 
   652  0216                     	;# 
   653  0217                     	;# 
   654  0217                     	;# 
   655  0218                     	;# 
   656  0219                     	;# 
   657  021A                     	;# 
   658  021B                     	;# 
   659  021B                     	;# 
   660  021C                     	;# 
   661  021C                     	;# 
   662  021D                     	;# 
   663  021D                     	;# 
   664  021E                     	;# 
   665  021F                     	;# 
   666  028C                     	;# 
   667  028C                     	;# 
   668  028D                     	;# 
   669  028D                     	;# 
   670  028E                     	;# 
   671  028F                     	;# 
   672  0290                     	;# 
   673  0290                     	;# 
   674  0291                     	;# 
   675  0292                     	;# 
   676  0292                     	;# 
   677  0293                     	;# 
   678  0293                     	;# 
   679  0294                     	;# 
   680  0295                     	;# 
   681  0296                     	;# 
   682  0296                     	;# 
   683  0297                     	;# 
   684  0298                     	;# 
   685  0298                     	;# 
   686  0299                     	;# 
   687  0299                     	;# 
   688  029A                     	;# 
   689  029B                     	;# 
   690  029C                     	;# 
   691  029C                     	;# 
   692  029D                     	;# 
   693  030C                     	;# 
   694  030C                     	;# 
   695  030D                     	;# 
   696  030E                     	;# 
   697  030F                     	;# 
   698  0310                     	;# 
   699  0310                     	;# 
   700  0311                     	;# 
   701  0312                     	;# 
   702  0313                     	;# 
   703  0314                     	;# 
   704  0314                     	;# 
   705  0315                     	;# 
   706  0316                     	;# 
   707  0317                     	;# 
   708  0318                     	;# 
   709  0318                     	;# 
   710  0319                     	;# 
   711  031A                     	;# 
   712  031B                     	;# 
   713  031C                     	;# 
   714  031C                     	;# 
   715  031D                     	;# 
   716  031E                     	;# 
   717  031F                     	;# 
   718  038C                     	;# 
   719  038D                     	;# 
   720  038E                     	;# 
   721  0390                     	;# 
   722  0391                     	;# 
   723  0392                     	;# 
   724  040C                     	;# 
   725  040D                     	;# 
   726  040E                     	;# 
   727  040F                     	;# 
   728  0410                     	;# 
   729  0411                     	;# 
   730  0416                     	;# 
   731  0416                     	;# 
   732  0417                     	;# 
   733  0418                     	;# 
   734  0418                     	;# 
   735  0419                     	;# 
   736  041A                     	;# 
   737  041A                     	;# 
   738  041B                     	;# 
   739  041C                     	;# 
   740  041C                     	;# 
   741  041D                     	;# 
   742  041E                     	;# 
   743  041F                     	;# 
   744  048C                     	;# 
   745  048C                     	;# 
   746  048D                     	;# 
   747  048E                     	;# 
   748  048F                     	;# 
   749  048F                     	;# 
   750  0490                     	;# 
   751  0491                     	;# 
   752  0492                     	;# 
   753  0492                     	;# 
   754  0493                     	;# 
   755  0494                     	;# 
   756  0495                     	;# 
   757  0495                     	;# 
   758  0496                     	;# 
   759  0497                     	;# 
   760  0498                     	;# 
   761  0499                     	;# 
   762  049A                     	;# 
   763  049B                     	;# 
   764  049C                     	;# 
   765  049D                     	;# 
   766  050C                     	;# 
   767  050C                     	;# 
   768  050D                     	;# 
   769  050E                     	;# 
   770  050F                     	;# 
   771  050F                     	;# 
   772  0510                     	;# 
   773  0511                     	;# 
   774  0512                     	;# 
   775  0512                     	;# 
   776  0513                     	;# 
   777  0514                     	;# 
   778  0515                     	;# 
   779  0515                     	;# 
   780  0516                     	;# 
   781  0517                     	;# 
   782  0518                     	;# 
   783  0519                     	;# 
   784  051A                     	;# 
   785  051B                     	;# 
   786  051C                     	;# 
   787  051D                     	;# 
   788  058C                     	;# 
   789  058C                     	;# 
   790  058D                     	;# 
   791  058E                     	;# 
   792  058F                     	;# 
   793  058F                     	;# 
   794  0590                     	;# 
   795  0591                     	;# 
   796  0592                     	;# 
   797  0593                     	;# 
   798  060C                     	;# 
   799  060D                     	;# 
   800  060E                     	;# 
   801  060F                     	;# 
   802  0610                     	;# 
   803  0611                     	;# 
   804  0612                     	;# 
   805  0613                     	;# 
   806  0614                     	;# 
   807  0616                     	;# 
   808  0617                     	;# 
   809  0618                     	;# 
   810  0619                     	;# 
   811  061A                     	;# 
   812  061B                     	;# 
   813  061C                     	;# 
   814  061D                     	;# 
   815  061E                     	;# 
   816  068C                     	;# 
   817  068D                     	;# 
   818  068E                     	;# 
   819  068F                     	;# 
   820  0690                     	;# 
   821  0691                     	;# 
   822  0692                     	;# 
   823  0693                     	;# 
   824  0694                     	;# 
   825  070C                     	;# 
   826  070D                     	;# 
   827  070E                     	;# 
   828  070F                     	;# 
   829  0710                     	;# 
   830  0711                     	;# 
   831  0712                     	;# 
   832  0713                     	;# 
   833  0714                     	;# 
   834  0716                     	;# 
   835  0717                     	;# 
   836  0718                     	;# 
   837  0719                     	;# 
   838  071A                     	;# 
   839  071B                     	;# 
   840  071C                     	;# 
   841  071D                     	;# 
   842  071E                     	;# 
   843  0796                     	;# 
   844  0797                     	;# 
   845  0798                     	;# 
   846  0799                     	;# 
   847  079A                     	;# 
   848  079B                     	;# 
   849  080C                     	;# 
   850  080D                     	;# 
   851  080E                     	;# 
   852  080F                     	;# 
   853  0810                     	;# 
   854  0811                     	;# 
   855  0812                     	;# 
   856  0813                     	;# 
   857  0814                     	;# 
   858  081A                     	;# 
   859  081B                     	;# 
   860  081C                     	;# 
   861  081D                     	;# 
   862  081E                     	;# 
   863  081F                     	;# 
   864  088C                     	;# 
   865  088D                     	;# 
   866  088E                     	;# 
   867  088F                     	;# 
   868  0890                     	;# 
   869  0891                     	;# 
   870  0892                     	;# 
   871  0893                     	;# 
   872  0895                     	;# 
   873  0896                     	;# 
   874  0897                     	;# 
   875  0898                     	;# 
   876  0899                     	;# 
   877  089A                     	;# 
   878  089B                     	;# 
   879  090C                     	;# 
   880  090E                     	;# 
   881  090F                     	;# 
   882  091F                     	;# 
   883  091F                     	;# 
   884  098F                     	;# 
   885  098F                     	;# 
   886  0990                     	;# 
   887  0991                     	;# 
   888  0992                     	;# 
   889  0993                     	;# 
   890  0994                     	;# 
   891  0995                     	;# 
   892  0996                     	;# 
   893  0997                     	;# 
   894  0E0F                     	;# 
   895  0E10                     	;# 
   896  0E11                     	;# 
   897  0E12                     	;# 
   898  0E13                     	;# 
   899  0E14                     	;# 
   900  0E15                     	;# 
   901  0E16                     	;# 
   902  0E17                     	;# 
   903  0E18                     	;# 
   904  0E19                     	;# 
   905  0E1A                     	;# 
   906  0E1B                     	;# 
   907  0E1C                     	;# 
   908  0E1D                     	;# 
   909  0E1E                     	;# 
   910  0E1F                     	;# 
   911  0E20                     	;# 
   912  0E21                     	;# 
   913  0E22                     	;# 
   914  0E23                     	;# 
   915  0E24                     	;# 
   916  0E25                     	;# 
   917  0E26                     	;# 
   918  0E27                     	;# 
   919  0E28                     	;# 
   920  0E29                     	;# 
   921  0E2A                     	;# 
   922  0E2B                     	;# 
   923  0E2C                     	;# 
   924  0E2D                     	;# 
   925  0E2E                     	;# 
   926  0E2F                     	;# 
   927  0E30                     	;# 
   928  0E31                     	;# 
   929  0E32                     	;# 
   930  0E33                     	;# 
   931  0E34                     	;# 
   932  0E35                     	;# 
   933  0E36                     	;# 
   934  0E37                     	;# 
   935  0E8F                     	;# 
   936  0E90                     	;# 
   937  0E91                     	;# 
   938  0E92                     	;# 
   939  0E93                     	;# 
   940  0E94                     	;# 
   941  0E95                     	;# 
   942  0E96                     	;# 
   943  0E97                     	;# 
   944  0E9C                     	;# 
   945  0E9D                     	;# 
   946  0E9E                     	;# 
   947  0EA1                     	;# 
   948  0EA2                     	;# 
   949  0EA3                     	;# 
   950  0EA4                     	;# 
   951  0EA5                     	;# 
   952  0EA9                     	;# 
   953  0EAA                     	;# 
   954  0EAB                     	;# 
   955  0EAC                     	;# 
   956  0EB1                     	;# 
   957  0EB2                     	;# 
   958  0EB3                     	;# 
   959  0EB8                     	;# 
   960  0EB9                     	;# 
   961  0EBA                     	;# 
   962  0EBB                     	;# 
   963  0EBC                     	;# 
   964  0EBD                     	;# 
   965  0EBE                     	;# 
   966  0EC3                     	;# 
   967  0EC5                     	;# 
   968  0EC6                     	;# 
   969  0EC7                     	;# 
   970  0EC8                     	;# 
   971  0EC9                     	;# 
   972  0ECA                     	;# 
   973  0ECB                     	;# 
   974  0ECC                     	;# 
   975  0F10                     	;# 
   976  0F11                     	;# 
   977  0F12                     	;# 
   978  0F13                     	;# 
   979  0F14                     	;# 
   980  0F15                     	;# 
   981  0F16                     	;# 
   982  0F17                     	;# 
   983  0F18                     	;# 
   984  0F19                     	;# 
   985  0F1A                     	;# 
   986  0F1B                     	;# 
   987  0F1C                     	;# 
   988  0F1D                     	;# 
   989  0F1E                     	;# 
   990  0F1F                     	;# 
   991  0F20                     	;# 
   992  0F21                     	;# 
   993  0F22                     	;# 
   994  0F23                     	;# 
   995  0F24                     	;# 
   996  0F25                     	;# 
   997  0F26                     	;# 
   998  0F27                     	;# 
   999  0F38                     	;# 
  1000  0F39                     	;# 
  1001  0F3A                     	;# 
  1002  0F3B                     	;# 
  1003  0F3C                     	;# 
  1004  0F3D                     	;# 
  1005  0F3E                     	;# 
  1006  0F3F                     	;# 
  1007  0F40                     	;# 
  1008  0F41                     	;# 
  1009  0F43                     	;# 
  1010  0F44                     	;# 
  1011  0F45                     	;# 
  1012  0F46                     	;# 
  1013  0F47                     	;# 
  1014  0F48                     	;# 
  1015  0F49                     	;# 
  1016  0F4A                     	;# 
  1017  0F4B                     	;# 
  1018  0F4C                     	;# 
  1019  0F4E                     	;# 
  1020  0F4F                     	;# 
  1021  0F50                     	;# 
  1022  0F51                     	;# 
  1023  0F52                     	;# 
  1024  0F53                     	;# 
  1025  0F54                     	;# 
  1026  0F55                     	;# 
  1027  0F56                     	;# 
  1028  0F57                     	;# 
  1029  0F65                     	;# 
  1030  0F68                     	;# 
  1031  0F69                     	;# 
  1032  0F6A                     	;# 
  1033  0F6B                     	;# 
  1034  0FE4                     	;# 
  1035  0FE5                     	;# 
  1036  0FE6                     	;# 
  1037  0FE7                     	;# 
  1038  0FE8                     	;# 
  1039  0FE9                     	;# 
  1040  0FEA                     	;# 
  1041  0FEB                     	;# 
  1042  0FED                     	;# 
  1043  0FEE                     	;# 
  1044  0FEF                     	;# 
  1045  0000                     	;# 
  1046  0001                     	;# 
  1047  0002                     	;# 
  1048  0003                     	;# 
  1049  0004                     	;# 
  1050  0005                     	;# 
  1051  0006                     	;# 
  1052  0007                     	;# 
  1053  0008                     	;# 
  1054  0009                     	;# 
  1055  000A                     	;# 
  1056  000B                     	;# 
  1057  000C                     	;# 
  1058  000D                     	;# 
  1059  000E                     	;# 
  1060  0010                     	;# 
  1061  0011                     	;# 
  1062  0012                     	;# 
  1063  0013                     	;# 
  1064  0016                     	;# 
  1065  0017                     	;# 
  1066  0018                     	;# 
  1067  001C                     	;# 
  1068  001C                     	;# 
  1069  001D                     	;# 
  1070  001D                     	;# 
  1071  001E                     	;# 
  1072  001F                     	;# 
  1073  008C                     	;# 
  1074  008C                     	;# 
  1075  008D                     	;# 
  1076  008E                     	;# 
  1077  008E                     	;# 
  1078  008F                     	;# 
  1079  0090                     	;# 
  1080  0090                     	;# 
  1081  0091                     	;# 
  1082  0093                     	;# 
  1083  0094                     	;# 
  1084  0095                     	;# 
  1085  0096                     	;# 
  1086  0097                     	;# 
  1087  0098                     	;# 
  1088  0099                     	;# 
  1089  009A                     	;# 
  1090  009B                     	;# 
  1091  009C                     	;# 
  1092  009D                     	;# 
  1093  009E                     	;# 
  1094  010C                     	;# 
  1095  010D                     	;# 
  1096  010E                     	;# 
  1097  010E                     	;# 
  1098  010F                     	;# 
  1099  0110                     	;# 
  1100  0110                     	;# 
  1101  0111                     	;# 
  1102  0112                     	;# 
  1103  0112                     	;# 
  1104  0113                     	;# 
  1105  0114                     	;# 
  1106  0114                     	;# 
  1107  0115                     	;# 
  1108  0116                     	;# 
  1109  0116                     	;# 
  1110  0117                     	;# 
  1111  0119                     	;# 
  1112  0119                     	;# 
  1113  0119                     	;# 
  1114  011A                     	;# 
  1115  011A                     	;# 
  1116  011A                     	;# 
  1117  011B                     	;# 
  1118  011B                     	;# 
  1119  011B                     	;# 
  1120  011B                     	;# 
  1121  011B                     	;# 
  1122  011C                     	;# 
  1123  011C                     	;# 
  1124  011C                     	;# 
  1125  011D                     	;# 
  1126  011D                     	;# 
  1127  011D                     	;# 
  1128  011E                     	;# 
  1129  011E                     	;# 
  1130  011E                     	;# 
  1131  011F                     	;# 
  1132  011F                     	;# 
  1133  011F                     	;# 
  1134  011F                     	;# 
  1135  011F                     	;# 
  1136  018C                     	;# 
  1137  018D                     	;# 
  1138  018E                     	;# 
  1139  018F                     	;# 
  1140  0190                     	;# 
  1141  0191                     	;# 
  1142  0192                     	;# 
  1143  0196                     	;# 
  1144  0197                     	;# 
  1145  0198                     	;# 
  1146  0199                     	;# 
  1147  019A                     	;# 
  1148  019B                     	;# 
  1149  019C                     	;# 
  1150  020C                     	;# 
  1151  020D                     	;# 
  1152  020E                     	;# 
  1153  020F                     	;# 
  1154  020F                     	;# 
  1155  0210                     	;# 
  1156  0210                     	;# 
  1157  0211                     	;# 
  1158  0211                     	;# 
  1159  0212                     	;# 
  1160  0213                     	;# 
  1161  0214                     	;# 
  1162  0215                     	;# 
  1163  0215                     	;# 
  1164  0216                     	;# 
  1165  0216                     	;# 
  1166  0217                     	;# 
  1167  0217                     	;# 
  1168  0218                     	;# 
  1169  0219                     	;# 
  1170  021A                     	;# 
  1171  021B                     	;# 
  1172  021B                     	;# 
  1173  021C                     	;# 
  1174  021C                     	;# 
  1175  021D                     	;# 
  1176  021D                     	;# 
  1177  021E                     	;# 
  1178  021F                     	;# 
  1179  028C                     	;# 
  1180  028C                     	;# 
  1181  028D                     	;# 
  1182  028D                     	;# 
  1183  028E                     	;# 
  1184  028F                     	;# 
  1185  0290                     	;# 
  1186  0290                     	;# 
  1187  0291                     	;# 
  1188  0292                     	;# 
  1189  0292                     	;# 
  1190  0293                     	;# 
  1191  0293                     	;# 
  1192  0294                     	;# 
  1193  0295                     	;# 
  1194  0296                     	;# 
  1195  0296                     	;# 
  1196  0297                     	;# 
  1197  0298                     	;# 
  1198  0298                     	;# 
  1199  0299                     	;# 
  1200  0299                     	;# 
  1201  029A                     	;# 
  1202  029B                     	;# 
  1203  029C                     	;# 
  1204  029C                     	;# 
  1205  029D                     	;# 
  1206  030C                     	;# 
  1207  030C                     	;# 
  1208  030D                     	;# 
  1209  030E                     	;# 
  1210  030F                     	;# 
  1211  0310                     	;# 
  1212  0310                     	;# 
  1213  0311                     	;# 
  1214  0312                     	;# 
  1215  0313                     	;# 
  1216  0314                     	;# 
  1217  0314                     	;# 
  1218  0315                     	;# 
  1219  0316                     	;# 
  1220  0317                     	;# 
  1221  0318                     	;# 
  1222  0318                     	;# 
  1223  0319                     	;# 
  1224  031A                     	;# 
  1225  031B                     	;# 
  1226  031C                     	;# 
  1227  031C                     	;# 
  1228  031D                     	;# 
  1229  031E                     	;# 
  1230  031F                     	;# 
  1231  038C                     	;# 
  1232  038D                     	;# 
  1233  038E                     	;# 
  1234  0390                     	;# 
  1235  0391                     	;# 
  1236  0392                     	;# 
  1237  040C                     	;# 
  1238  040D                     	;# 
  1239  040E                     	;# 
  1240  040F                     	;# 
  1241  0410                     	;# 
  1242  0411                     	;# 
  1243  0416                     	;# 
  1244  0416                     	;# 
  1245  0417                     	;# 
  1246  0418                     	;# 
  1247  0418                     	;# 
  1248  0419                     	;# 
  1249  041A                     	;# 
  1250  041A                     	;# 
  1251  041B                     	;# 
  1252  041C                     	;# 
  1253  041C                     	;# 
  1254  041D                     	;# 
  1255  041E                     	;# 
  1256  041F                     	;# 
  1257  048C                     	;# 
  1258  048C                     	;# 
  1259  048D                     	;# 
  1260  048E                     	;# 
  1261  048F                     	;# 
  1262  048F                     	;# 
  1263  0490                     	;# 
  1264  0491                     	;# 
  1265  0492                     	;# 
  1266  0492                     	;# 
  1267  0493                     	;# 
  1268  0494                     	;# 
  1269  0495                     	;# 
  1270  0495                     	;# 
  1271  0496                     	;# 
  1272  0497                     	;# 
  1273  0498                     	;# 
  1274  0499                     	;# 
  1275  049A                     	;# 
  1276  049B                     	;# 
  1277  049C                     	;# 
  1278  049D                     	;# 
  1279  050C                     	;# 
  1280  050C                     	;# 
  1281  050D                     	;# 
  1282  050E                     	;# 
  1283  050F                     	;# 
  1284  050F                     	;# 
  1285  0510                     	;# 
  1286  0511                     	;# 
  1287  0512                     	;# 
  1288  0512                     	;# 
  1289  0513                     	;# 
  1290  0514                     	;# 
  1291  0515                     	;# 
  1292  0515                     	;# 
  1293  0516                     	;# 
  1294  0517                     	;# 
  1295  0518                     	;# 
  1296  0519                     	;# 
  1297  051A                     	;# 
  1298  051B                     	;# 
  1299  051C                     	;# 
  1300  051D                     	;# 
  1301  058C                     	;# 
  1302  058C                     	;# 
  1303  058D                     	;# 
  1304  058E                     	;# 
  1305  058F                     	;# 
  1306  058F                     	;# 
  1307  0590                     	;# 
  1308  0591                     	;# 
  1309  0592                     	;# 
  1310  0593                     	;# 
  1311  060C                     	;# 
  1312  060D                     	;# 
  1313  060E                     	;# 
  1314  060F                     	;# 
  1315  0610                     	;# 
  1316  0611                     	;# 
  1317  0612                     	;# 
  1318  0613                     	;# 
  1319  0614                     	;# 
  1320  0616                     	;# 
  1321  0617                     	;# 
  1322  0618                     	;# 
  1323  0619                     	;# 
  1324  061A                     	;# 
  1325  061B                     	;# 
  1326  061C                     	;# 
  1327  061D                     	;# 
  1328  061E                     	;# 
  1329  068C                     	;# 
  1330  068D                     	;# 
  1331  068E                     	;# 
  1332  068F                     	;# 
  1333  0690                     	;# 
  1334  0691                     	;# 
  1335  0692                     	;# 
  1336  0693                     	;# 
  1337  0694                     	;# 
  1338  070C                     	;# 
  1339  070D                     	;# 
  1340  070E                     	;# 
  1341  070F                     	;# 
  1342  0710                     	;# 
  1343  0711                     	;# 
  1344  0712                     	;# 
  1345  0713                     	;# 
  1346  0714                     	;# 
  1347  0716                     	;# 
  1348  0717                     	;# 
  1349  0718                     	;# 
  1350  0719                     	;# 
  1351  071A                     	;# 
  1352  071B                     	;# 
  1353  071C                     	;# 
  1354  071D                     	;# 
  1355  071E                     	;# 
  1356  0796                     	;# 
  1357  0797                     	;# 
  1358  0798                     	;# 
  1359  0799                     	;# 
  1360  079A                     	;# 
  1361  079B                     	;# 
  1362  080C                     	;# 
  1363  080D                     	;# 
  1364  080E                     	;# 
  1365  080F                     	;# 
  1366  0810                     	;# 
  1367  0811                     	;# 
  1368  0812                     	;# 
  1369  0813                     	;# 
  1370  0814                     	;# 
  1371  081A                     	;# 
  1372  081B                     	;# 
  1373  081C                     	;# 
  1374  081D                     	;# 
  1375  081E                     	;# 
  1376  081F                     	;# 
  1377  088C                     	;# 
  1378  088D                     	;# 
  1379  088E                     	;# 
  1380  088F                     	;# 
  1381  0890                     	;# 
  1382  0891                     	;# 
  1383  0892                     	;# 
  1384  0893                     	;# 
  1385  0895                     	;# 
  1386  0896                     	;# 
  1387  0897                     	;# 
  1388  0898                     	;# 
  1389  0899                     	;# 
  1390  089A                     	;# 
  1391  089B                     	;# 
  1392  090C                     	;# 
  1393  090E                     	;# 
  1394  090F                     	;# 
  1395  091F                     	;# 
  1396  091F                     	;# 
  1397  098F                     	;# 
  1398  098F                     	;# 
  1399  0990                     	;# 
  1400  0991                     	;# 
  1401  0992                     	;# 
  1402  0993                     	;# 
  1403  0994                     	;# 
  1404  0995                     	;# 
  1405  0996                     	;# 
  1406  0997                     	;# 
  1407  0E0F                     	;# 
  1408  0E10                     	;# 
  1409  0E11                     	;# 
  1410  0E12                     	;# 
  1411  0E13                     	;# 
  1412  0E14                     	;# 
  1413  0E15                     	;# 
  1414  0E16                     	;# 
  1415  0E17                     	;# 
  1416  0E18                     	;# 
  1417  0E19                     	;# 
  1418  0E1A                     	;# 
  1419  0E1B                     	;# 
  1420  0E1C                     	;# 
  1421  0E1D                     	;# 
  1422  0E1E                     	;# 
  1423  0E1F                     	;# 
  1424  0E20                     	;# 
  1425  0E21                     	;# 
  1426  0E22                     	;# 
  1427  0E23                     	;# 
  1428  0E24                     	;# 
  1429  0E25                     	;# 
  1430  0E26                     	;# 
  1431  0E27                     	;# 
  1432  0E28                     	;# 
  1433  0E29                     	;# 
  1434  0E2A                     	;# 
  1435  0E2B                     	;# 
  1436  0E2C                     	;# 
  1437  0E2D                     	;# 
  1438  0E2E                     	;# 
  1439  0E2F                     	;# 
  1440  0E30                     	;# 
  1441  0E31                     	;# 
  1442  0E32                     	;# 
  1443  0E33                     	;# 
  1444  0E34                     	;# 
  1445  0E35                     	;# 
  1446  0E36                     	;# 
  1447  0E37                     	;# 
  1448  0E8F                     	;# 
  1449  0E90                     	;# 
  1450  0E91                     	;# 
  1451  0E92                     	;# 
  1452  0E93                     	;# 
  1453  0E94                     	;# 
  1454  0E95                     	;# 
  1455  0E96                     	;# 
  1456  0E97                     	;# 
  1457  0E9C                     	;# 
  1458  0E9D                     	;# 
  1459  0E9E                     	;# 
  1460  0EA1                     	;# 
  1461  0EA2                     	;# 
  1462  0EA3                     	;# 
  1463  0EA4                     	;# 
  1464  0EA5                     	;# 
  1465  0EA9                     	;# 
  1466  0EAA                     	;# 
  1467  0EAB                     	;# 
  1468  0EAC                     	;# 
  1469  0EB1                     	;# 
  1470  0EB2                     	;# 
  1471  0EB3                     	;# 
  1472  0EB8                     	;# 
  1473  0EB9                     	;# 
  1474  0EBA                     	;# 
  1475  0EBB                     	;# 
  1476  0EBC                     	;# 
  1477  0EBD                     	;# 
  1478  0EBE                     	;# 
  1479  0EC3                     	;# 
  1480  0EC5                     	;# 
  1481  0EC6                     	;# 
  1482  0EC7                     	;# 
  1483  0EC8                     	;# 
  1484  0EC9                     	;# 
  1485  0ECA                     	;# 
  1486  0ECB                     	;# 
  1487  0ECC                     	;# 
  1488  0F10                     	;# 
  1489  0F11                     	;# 
  1490  0F12                     	;# 
  1491  0F13                     	;# 
  1492  0F14                     	;# 
  1493  0F15                     	;# 
  1494  0F16                     	;# 
  1495  0F17                     	;# 
  1496  0F18                     	;# 
  1497  0F19                     	;# 
  1498  0F1A                     	;# 
  1499  0F1B                     	;# 
  1500  0F1C                     	;# 
  1501  0F1D                     	;# 
  1502  0F1E                     	;# 
  1503  0F1F                     	;# 
  1504  0F20                     	;# 
  1505  0F21                     	;# 
  1506  0F22                     	;# 
  1507  0F23                     	;# 
  1508  0F24                     	;# 
  1509  0F25                     	;# 
  1510  0F26                     	;# 
  1511  0F27                     	;# 
  1512  0F38                     	;# 
  1513  0F39                     	;# 
  1514  0F3A                     	;# 
  1515  0F3B                     	;# 
  1516  0F3C                     	;# 
  1517  0F3D                     	;# 
  1518  0F3E                     	;# 
  1519  0F3F                     	;# 
  1520  0F40                     	;# 
  1521  0F41                     	;# 
  1522  0F43                     	;# 
  1523  0F44                     	;# 
  1524  0F45                     	;# 
  1525  0F46                     	;# 
  1526  0F47                     	;# 
  1527  0F48                     	;# 
  1528  0F49                     	;# 
  1529  0F4A                     	;# 
  1530  0F4B                     	;# 
  1531  0F4C                     	;# 
  1532  0F4E                     	;# 
  1533  0F4F                     	;# 
  1534  0F50                     	;# 
  1535  0F51                     	;# 
  1536  0F52                     	;# 
  1537  0F53                     	;# 
  1538  0F54                     	;# 
  1539  0F55                     	;# 
  1540  0F56                     	;# 
  1541  0F57                     	;# 
  1542  0F65                     	;# 
  1543  0F68                     	;# 
  1544  0F69                     	;# 
  1545  0F6A                     	;# 
  1546  0F6B                     	;# 
  1547  0FE4                     	;# 
  1548  0FE5                     	;# 
  1549  0FE6                     	;# 
  1550  0FE7                     	;# 
  1551  0FE8                     	;# 
  1552  0FE9                     	;# 
  1553  0FEA                     	;# 
  1554  0FEB                     	;# 
  1555  0FED                     	;# 
  1556  0FEE                     	;# 
  1557  0FEF                     	;# 
  1558  0000                     	;# 
  1559  0001                     	;# 
  1560  0002                     	;# 
  1561  0003                     	;# 
  1562  0004                     	;# 
  1563  0005                     	;# 
  1564  0006                     	;# 
  1565  0007                     	;# 
  1566  0008                     	;# 
  1567  0009                     	;# 
  1568  000A                     	;# 
  1569  000B                     	;# 
  1570  000C                     	;# 
  1571  000D                     	;# 
  1572  000E                     	;# 
  1573  0010                     	;# 
  1574  0011                     	;# 
  1575  0012                     	;# 
  1576  0013                     	;# 
  1577  0016                     	;# 
  1578  0017                     	;# 
  1579  0018                     	;# 
  1580  001C                     	;# 
  1581  001C                     	;# 
  1582  001D                     	;# 
  1583  001D                     	;# 
  1584  001E                     	;# 
  1585  001F                     	;# 
  1586  008C                     	;# 
  1587  008C                     	;# 
  1588  008D                     	;# 
  1589  008E                     	;# 
  1590  008E                     	;# 
  1591  008F                     	;# 
  1592  0090                     	;# 
  1593  0090                     	;# 
  1594  0091                     	;# 
  1595  0093                     	;# 
  1596  0094                     	;# 
  1597  0095                     	;# 
  1598  0096                     	;# 
  1599  0097                     	;# 
  1600  0098                     	;# 
  1601  0099                     	;# 
  1602  009A                     	;# 
  1603  009B                     	;# 
  1604  009C                     	;# 
  1605  009D                     	;# 
  1606  009E                     	;# 
  1607  010C                     	;# 
  1608  010D                     	;# 
  1609  010E                     	;# 
  1610  010E                     	;# 
  1611  010F                     	;# 
  1612  0110                     	;# 
  1613  0110                     	;# 
  1614  0111                     	;# 
  1615  0112                     	;# 
  1616  0112                     	;# 
  1617  0113                     	;# 
  1618  0114                     	;# 
  1619  0114                     	;# 
  1620  0115                     	;# 
  1621  0116                     	;# 
  1622  0116                     	;# 
  1623  0117                     	;# 
  1624  0119                     	;# 
  1625  0119                     	;# 
  1626  0119                     	;# 
  1627  011A                     	;# 
  1628  011A                     	;# 
  1629  011A                     	;# 
  1630  011B                     	;# 
  1631  011B                     	;# 
  1632  011B                     	;# 
  1633  011B                     	;# 
  1634  011B                     	;# 
  1635  011C                     	;# 
  1636  011C                     	;# 
  1637  011C                     	;# 
  1638  011D                     	;# 
  1639  011D                     	;# 
  1640  011D                     	;# 
  1641  011E                     	;# 
  1642  011E                     	;# 
  1643  011E                     	;# 
  1644  011F                     	;# 
  1645  011F                     	;# 
  1646  011F                     	;# 
  1647  011F                     	;# 
  1648  011F                     	;# 
  1649  018C                     	;# 
  1650  018D                     	;# 
  1651  018E                     	;# 
  1652  018F                     	;# 
  1653  0190                     	;# 
  1654  0191                     	;# 
  1655  0192                     	;# 
  1656  0196                     	;# 
  1657  0197                     	;# 
  1658  0198                     	;# 
  1659  0199                     	;# 
  1660  019A                     	;# 
  1661  019B                     	;# 
  1662  019C                     	;# 
  1663  020C                     	;# 
  1664  020D                     	;# 
  1665  020E                     	;# 
  1666  020F                     	;# 
  1667  020F                     	;# 
  1668  0210                     	;# 
  1669  0210                     	;# 
  1670  0211                     	;# 
  1671  0211                     	;# 
  1672  0212                     	;# 
  1673  0213                     	;# 
  1674  0214                     	;# 
  1675  0215                     	;# 
  1676  0215                     	;# 
  1677  0216                     	;# 
  1678  0216                     	;# 
  1679  0217                     	;# 
  1680  0217                     	;# 
  1681  0218                     	;# 
  1682  0219                     	;# 
  1683  021A                     	;# 
  1684  021B                     	;# 
  1685  021B                     	;# 
  1686  021C                     	;# 
  1687  021C                     	;# 
  1688  021D                     	;# 
  1689  021D                     	;# 
  1690  021E                     	;# 
  1691  021F                     	;# 
  1692  028C                     	;# 
  1693  028C                     	;# 
  1694  028D                     	;# 
  1695  028D                     	;# 
  1696  028E                     	;# 
  1697  028F                     	;# 
  1698  0290                     	;# 
  1699  0290                     	;# 
  1700  0291                     	;# 
  1701  0292                     	;# 
  1702  0292                     	;# 
  1703  0293                     	;# 
  1704  0293                     	;# 
  1705  0294                     	;# 
  1706  0295                     	;# 
  1707  0296                     	;# 
  1708  0296                     	;# 
  1709  0297                     	;# 
  1710  0298                     	;# 
  1711  0298                     	;# 
  1712  0299                     	;# 
  1713  0299                     	;# 
  1714  029A                     	;# 
  1715  029B                     	;# 
  1716  029C                     	;# 
  1717  029C                     	;# 
  1718  029D                     	;# 
  1719  030C                     	;# 
  1720  030C                     	;# 
  1721  030D                     	;# 
  1722  030E                     	;# 
  1723  030F                     	;# 
  1724  0310                     	;# 
  1725  0310                     	;# 
  1726  0311                     	;# 
  1727  0312                     	;# 
  1728  0313                     	;# 
  1729  0314                     	;# 
  1730  0314                     	;# 
  1731  0315                     	;# 
  1732  0316                     	;# 
  1733  0317                     	;# 
  1734  0318                     	;# 
  1735  0318                     	;# 
  1736  0319                     	;# 
  1737  031A                     	;# 
  1738  031B                     	;# 
  1739  031C                     	;# 
  1740  031C                     	;# 
  1741  031D                     	;# 
  1742  031E                     	;# 
  1743  031F                     	;# 
  1744  038C                     	;# 
  1745  038D                     	;# 
  1746  038E                     	;# 
  1747  0390                     	;# 
  1748  0391                     	;# 
  1749  0392                     	;# 
  1750  040C                     	;# 
  1751  040D                     	;# 
  1752  040E                     	;# 
  1753  040F                     	;# 
  1754  0410                     	;# 
  1755  0411                     	;# 
  1756  0416                     	;# 
  1757  0416                     	;# 
  1758  0417                     	;# 
  1759  0418                     	;# 
  1760  0418                     	;# 
  1761  0419                     	;# 
  1762  041A                     	;# 
  1763  041A                     	;# 
  1764  041B                     	;# 
  1765  041C                     	;# 
  1766  041C                     	;# 
  1767  041D                     	;# 
  1768  041E                     	;# 
  1769  041F                     	;# 
  1770  048C                     	;# 
  1771  048C                     	;# 
  1772  048D                     	;# 
  1773  048E                     	;# 
  1774  048F                     	;# 
  1775  048F                     	;# 
  1776  0490                     	;# 
  1777  0491                     	;# 
  1778  0492                     	;# 
  1779  0492                     	;# 
  1780  0493                     	;# 
  1781  0494                     	;# 
  1782  0495                     	;# 
  1783  0495                     	;# 
  1784  0496                     	;# 
  1785  0497                     	;# 
  1786  0498                     	;# 
  1787  0499                     	;# 
  1788  049A                     	;# 
  1789  049B                     	;# 
  1790  049C                     	;# 
  1791  049D                     	;# 
  1792  050C                     	;# 
  1793  050C                     	;# 
  1794  050D                     	;# 
  1795  050E                     	;# 
  1796  050F                     	;# 
  1797  050F                     	;# 
  1798  0510                     	;# 
  1799  0511                     	;# 
  1800  0512                     	;# 
  1801  0512                     	;# 
  1802  0513                     	;# 
  1803  0514                     	;# 
  1804  0515                     	;# 
  1805  0515                     	;# 
  1806  0516                     	;# 
  1807  0517                     	;# 
  1808  0518                     	;# 
  1809  0519                     	;# 
  1810  051A                     	;# 
  1811  051B                     	;# 
  1812  051C                     	;# 
  1813  051D                     	;# 
  1814  058C                     	;# 
  1815  058C                     	;# 
  1816  058D                     	;# 
  1817  058E                     	;# 
  1818  058F                     	;# 
  1819  058F                     	;# 
  1820  0590                     	;# 
  1821  0591                     	;# 
  1822  0592                     	;# 
  1823  0593                     	;# 
  1824  060C                     	;# 
  1825  060D                     	;# 
  1826  060E                     	;# 
  1827  060F                     	;# 
  1828  0610                     	;# 
  1829  0611                     	;# 
  1830  0612                     	;# 
  1831  0613                     	;# 
  1832  0614                     	;# 
  1833  0616                     	;# 
  1834  0617                     	;# 
  1835  0618                     	;# 
  1836  0619                     	;# 
  1837  061A                     	;# 
  1838  061B                     	;# 
  1839  061C                     	;# 
  1840  061D                     	;# 
  1841  061E                     	;# 
  1842  068C                     	;# 
  1843  068D                     	;# 
  1844  068E                     	;# 
  1845  068F                     	;# 
  1846  0690                     	;# 
  1847  0691                     	;# 
  1848  0692                     	;# 
  1849  0693                     	;# 
  1850  0694                     	;# 
  1851  070C                     	;# 
  1852  070D                     	;# 
  1853  070E                     	;# 
  1854  070F                     	;# 
  1855  0710                     	;# 
  1856  0711                     	;# 
  1857  0712                     	;# 
  1858  0713                     	;# 
  1859  0714                     	;# 
  1860  0716                     	;# 
  1861  0717                     	;# 
  1862  0718                     	;# 
  1863  0719                     	;# 
  1864  071A                     	;# 
  1865  071B                     	;# 
  1866  071C                     	;# 
  1867  071D                     	;# 
  1868  071E                     	;# 
  1869  0796                     	;# 
  1870  0797                     	;# 
  1871  0798                     	;# 
  1872  0799                     	;# 
  1873  079A                     	;# 
  1874  079B                     	;# 
  1875  080C                     	;# 
  1876  080D                     	;# 
  1877  080E                     	;# 
  1878  080F                     	;# 
  1879  0810                     	;# 
  1880  0811                     	;# 
  1881  0812                     	;# 
  1882  0813                     	;# 
  1883  0814                     	;# 
  1884  081A                     	;# 
  1885  081B                     	;# 
  1886  081C                     	;# 
  1887  081D                     	;# 
  1888  081E                     	;# 
  1889  081F                     	;# 
  1890  088C                     	;# 
  1891  088D                     	;# 
  1892  088E                     	;# 
  1893  088F                     	;# 
  1894  0890                     	;# 
  1895  0891                     	;# 
  1896  0892                     	;# 
  1897  0893                     	;# 
  1898  0895                     	;# 
  1899  0896                     	;# 
  1900  0897                     	;# 
  1901  0898                     	;# 
  1902  0899                     	;# 
  1903  089A                     	;# 
  1904  089B                     	;# 
  1905  090C                     	;# 
  1906  090E                     	;# 
  1907  090F                     	;# 
  1908  091F                     	;# 
  1909  091F                     	;# 
  1910  098F                     	;# 
  1911  098F                     	;# 
  1912  0990                     	;# 
  1913  0991                     	;# 
  1914  0992                     	;# 
  1915  0993                     	;# 
  1916  0994                     	;# 
  1917  0995                     	;# 
  1918  0996                     	;# 
  1919  0997                     	;# 
  1920  0E0F                     	;# 
  1921  0E10                     	;# 
  1922  0E11                     	;# 
  1923  0E12                     	;# 
  1924  0E13                     	;# 
  1925  0E14                     	;# 
  1926  0E15                     	;# 
  1927  0E16                     	;# 
  1928  0E17                     	;# 
  1929  0E18                     	;# 
  1930  0E19                     	;# 
  1931  0E1A                     	;# 
  1932  0E1B                     	;# 
  1933  0E1C                     	;# 
  1934  0E1D                     	;# 
  1935  0E1E                     	;# 
  1936  0E1F                     	;# 
  1937  0E20                     	;# 
  1938  0E21                     	;# 
  1939  0E22                     	;# 
  1940  0E23                     	;# 
  1941  0E24                     	;# 
  1942  0E25                     	;# 
  1943  0E26                     	;# 
  1944  0E27                     	;# 
  1945  0E28                     	;# 
  1946  0E29                     	;# 
  1947  0E2A                     	;# 
  1948  0E2B                     	;# 
  1949  0E2C                     	;# 
  1950  0E2D                     	;# 
  1951  0E2E                     	;# 
  1952  0E2F                     	;# 
  1953  0E30                     	;# 
  1954  0E31                     	;# 
  1955  0E32                     	;# 
  1956  0E33                     	;# 
  1957  0E34                     	;# 
  1958  0E35                     	;# 
  1959  0E36                     	;# 
  1960  0E37                     	;# 
  1961  0E8F                     	;# 
  1962  0E90                     	;# 
  1963  0E91                     	;# 
  1964  0E92                     	;# 
  1965  0E93                     	;# 
  1966  0E94                     	;# 
  1967  0E95                     	;# 
  1968  0E96                     	;# 
  1969  0E97                     	;# 
  1970  0E9C                     	;# 
  1971  0E9D                     	;# 
  1972  0E9E                     	;# 
  1973  0EA1                     	;# 
  1974  0EA2                     	;# 
  1975  0EA3                     	;# 
  1976  0EA4                     	;# 
  1977  0EA5                     	;# 
  1978  0EA9                     	;# 
  1979  0EAA                     	;# 
  1980  0EAB                     	;# 
  1981  0EAC                     	;# 
  1982  0EB1                     	;# 
  1983  0EB2                     	;# 
  1984  0EB3                     	;# 
  1985  0EB8                     	;# 
  1986  0EB9                     	;# 
  1987  0EBA                     	;# 
  1988  0EBB                     	;# 
  1989  0EBC                     	;# 
  1990  0EBD                     	;# 
  1991  0EBE                     	;# 
  1992  0EC3                     	;# 
  1993  0EC5                     	;# 
  1994  0EC6                     	;# 
  1995  0EC7                     	;# 
  1996  0EC8                     	;# 
  1997  0EC9                     	;# 
  1998  0ECA                     	;# 
  1999  0ECB                     	;# 
  2000  0ECC                     	;# 
  2001  0F10                     	;# 
  2002  0F11                     	;# 
  2003  0F12                     	;# 
  2004  0F13                     	;# 
  2005  0F14                     	;# 
  2006  0F15                     	;# 
  2007  0F16                     	;# 
  2008  0F17                     	;# 
  2009  0F18                     	;# 
  2010  0F19                     	;# 
  2011  0F1A                     	;# 
  2012  0F1B                     	;# 
  2013  0F1C                     	;# 
  2014  0F1D                     	;# 
  2015  0F1E                     	;# 
  2016  0F1F                     	;# 
  2017  0F20                     	;# 
  2018  0F21                     	;# 
  2019  0F22                     	;# 
  2020  0F23                     	;# 
  2021  0F24                     	;# 
  2022  0F25                     	;# 
  2023  0F26                     	;# 
  2024  0F27                     	;# 
  2025  0F38                     	;# 
  2026  0F39                     	;# 
  2027  0F3A                     	;# 
  2028  0F3B                     	;# 
  2029  0F3C                     	;# 
  2030  0F3D                     	;# 
  2031  0F3E                     	;# 
  2032  0F3F                     	;# 
  2033  0F40                     	;# 
  2034  0F41                     	;# 
  2035  0F43                     	;# 
  2036  0F44                     	;# 
  2037  0F45                     	;# 
  2038  0F46                     	;# 
  2039  0F47                     	;# 
  2040  0F48                     	;# 
  2041  0F49                     	;# 
  2042  0F4A                     	;# 
  2043  0F4B                     	;# 
  2044  0F4C                     	;# 
  2045  0F4E                     	;# 
  2046  0F4F                     	;# 
  2047  0F50                     	;# 
  2048  0F51                     	;# 
  2049  0F52                     	;# 
  2050  0F53                     	;# 
  2051  0F54                     	;# 
  2052  0F55                     	;# 
  2053  0F56                     	;# 
  2054  0F57                     	;# 
  2055  0F65                     	;# 
  2056  0F68                     	;# 
  2057  0F69                     	;# 
  2058  0F6A                     	;# 
  2059  0F6B                     	;# 
  2060  0FE4                     	;# 
  2061  0FE5                     	;# 
  2062  0FE6                     	;# 
  2063  0FE7                     	;# 
  2064  0FE8                     	;# 
  2065  0FE9                     	;# 
  2066  0FEA                     	;# 
  2067  0FEB                     	;# 
  2068  0FED                     	;# 
  2069  0FEE                     	;# 
  2070  0FEF                     	;# 
  2071  0000                     	;# 
  2072  0001                     	;# 
  2073  0002                     	;# 
  2074  0003                     	;# 
  2075  0004                     	;# 
  2076  0005                     	;# 
  2077  0006                     	;# 
  2078  0007                     	;# 
  2079  0008                     	;# 
  2080  0009                     	;# 
  2081  000A                     	;# 
  2082  000B                     	;# 
  2083  000C                     	;# 
  2084  000D                     	;# 
  2085  000E                     	;# 
  2086  0010                     	;# 
  2087  0011                     	;# 
  2088  0012                     	;# 
  2089  0013                     	;# 
  2090  0016                     	;# 
  2091  0017                     	;# 
  2092  0018                     	;# 
  2093  001C                     	;# 
  2094  001C                     	;# 
  2095  001D                     	;# 
  2096  001D                     	;# 
  2097  001E                     	;# 
  2098  001F                     	;# 
  2099  008C                     	;# 
  2100  008C                     	;# 
  2101  008D                     	;# 
  2102  008E                     	;# 
  2103  008E                     	;# 
  2104  008F                     	;# 
  2105  0090                     	;# 
  2106  0090                     	;# 
  2107  0091                     	;# 
  2108  0093                     	;# 
  2109  0094                     	;# 
  2110  0095                     	;# 
  2111  0096                     	;# 
  2112  0097                     	;# 
  2113  0098                     	;# 
  2114  0099                     	;# 
  2115  009A                     	;# 
  2116  009B                     	;# 
  2117  009C                     	;# 
  2118  009D                     	;# 
  2119  009E                     	;# 
  2120  010C                     	;# 
  2121  010D                     	;# 
  2122  010E                     	;# 
  2123  010E                     	;# 
  2124  010F                     	;# 
  2125  0110                     	;# 
  2126  0110                     	;# 
  2127  0111                     	;# 
  2128  0112                     	;# 
  2129  0112                     	;# 
  2130  0113                     	;# 
  2131  0114                     	;# 
  2132  0114                     	;# 
  2133  0115                     	;# 
  2134  0116                     	;# 
  2135  0116                     	;# 
  2136  0117                     	;# 
  2137  0119                     	;# 
  2138  0119                     	;# 
  2139  0119                     	;# 
  2140  011A                     	;# 
  2141  011A                     	;# 
  2142  011A                     	;# 
  2143  011B                     	;# 
  2144  011B                     	;# 
  2145  011B                     	;# 
  2146  011B                     	;# 
  2147  011B                     	;# 
  2148  011C                     	;# 
  2149  011C                     	;# 
  2150  011C                     	;# 
  2151  011D                     	;# 
  2152  011D                     	;# 
  2153  011D                     	;# 
  2154  011E                     	;# 
  2155  011E                     	;# 
  2156  011E                     	;# 
  2157  011F                     	;# 
  2158  011F                     	;# 
  2159  011F                     	;# 
  2160  011F                     	;# 
  2161  011F                     	;# 
  2162  018C                     	;# 
  2163  018D                     	;# 
  2164  018E                     	;# 
  2165  018F                     	;# 
  2166  0190                     	;# 
  2167  0191                     	;# 
  2168  0192                     	;# 
  2169  0196                     	;# 
  2170  0197                     	;# 
  2171  0198                     	;# 
  2172  0199                     	;# 
  2173  019A                     	;# 
  2174  019B                     	;# 
  2175  019C                     	;# 
  2176  020C                     	;# 
  2177  020D                     	;# 
  2178  020E                     	;# 
  2179  020F                     	;# 
  2180  020F                     	;# 
  2181  0210                     	;# 
  2182  0210                     	;# 
  2183  0211                     	;# 
  2184  0211                     	;# 
  2185  0212                     	;# 
  2186  0213                     	;# 
  2187  0214                     	;# 
  2188  0215                     	;# 
  2189  0215                     	;# 
  2190  0216                     	;# 
  2191  0216                     	;# 
  2192  0217                     	;# 
  2193  0217                     	;# 
  2194  0218                     	;# 
  2195  0219                     	;# 
  2196  021A                     	;# 
  2197  021B                     	;# 
  2198  021B                     	;# 
  2199  021C                     	;# 
  2200  021C                     	;# 
  2201  021D                     	;# 
  2202  021D                     	;# 
  2203  021E                     	;# 
  2204  021F                     	;# 
  2205  028C                     	;# 
  2206  028C                     	;# 
  2207  028D                     	;# 
  2208  028D                     	;# 
  2209  028E                     	;# 
  2210  028F                     	;# 
  2211  0290                     	;# 
  2212  0290                     	;# 
  2213  0291                     	;# 
  2214  0292                     	;# 
  2215  0292                     	;# 
  2216  0293                     	;# 
  2217  0293                     	;# 
  2218  0294                     	;# 
  2219  0295                     	;# 
  2220  0296                     	;# 
  2221  0296                     	;# 
  2222  0297                     	;# 
  2223  0298                     	;# 
  2224  0298                     	;# 
  2225  0299                     	;# 
  2226  0299                     	;# 
  2227  029A                     	;# 
  2228  029B                     	;# 
  2229  029C                     	;# 
  2230  029C                     	;# 
  2231  029D                     	;# 
  2232  030C                     	;# 
  2233  030C                     	;# 
  2234  030D                     	;# 
  2235  030E                     	;# 
  2236  030F                     	;# 
  2237  0310                     	;# 
  2238  0310                     	;# 
  2239  0311                     	;# 
  2240  0312                     	;# 
  2241  0313                     	;# 
  2242  0314                     	;# 
  2243  0314                     	;# 
  2244  0315                     	;# 
  2245  0316                     	;# 
  2246  0317                     	;# 
  2247  0318                     	;# 
  2248  0318                     	;# 
  2249  0319                     	;# 
  2250  031A                     	;# 
  2251  031B                     	;# 
  2252  031C                     	;# 
  2253  031C                     	;# 
  2254  031D                     	;# 
  2255  031E                     	;# 
  2256  031F                     	;# 
  2257  038C                     	;# 
  2258  038D                     	;# 
  2259  038E                     	;# 
  2260  0390                     	;# 
  2261  0391                     	;# 
  2262  0392                     	;# 
  2263  040C                     	;# 
  2264  040D                     	;# 
  2265  040E                     	;# 
  2266  040F                     	;# 
  2267  0410                     	;# 
  2268  0411                     	;# 
  2269  0416                     	;# 
  2270  0416                     	;# 
  2271  0417                     	;# 
  2272  0418                     	;# 
  2273  0418                     	;# 
  2274  0419                     	;# 
  2275  041A                     	;# 
  2276  041A                     	;# 
  2277  041B                     	;# 
  2278  041C                     	;# 
  2279  041C                     	;# 
  2280  041D                     	;# 
  2281  041E                     	;# 
  2282  041F                     	;# 
  2283  048C                     	;# 
  2284  048C                     	;# 
  2285  048D                     	;# 
  2286  048E                     	;# 
  2287  048F                     	;# 
  2288  048F                     	;# 
  2289  0490                     	;# 
  2290  0491                     	;# 
  2291  0492                     	;# 
  2292  0492                     	;# 
  2293  0493                     	;# 
  2294  0494                     	;# 
  2295  0495                     	;# 
  2296  0495                     	;# 
  2297  0496                     	;# 
  2298  0497                     	;# 
  2299  0498                     	;# 
  2300  0499                     	;# 
  2301  049A                     	;# 
  2302  049B                     	;# 
  2303  049C                     	;# 
  2304  049D                     	;# 
  2305  050C                     	;# 
  2306  050C                     	;# 
  2307  050D                     	;# 
  2308  050E                     	;# 
  2309  050F                     	;# 
  2310  050F                     	;# 
  2311  0510                     	;# 
  2312  0511                     	;# 
  2313  0512                     	;# 
  2314  0512                     	;# 
  2315  0513                     	;# 
  2316  0514                     	;# 
  2317  0515                     	;# 
  2318  0515                     	;# 
  2319  0516                     	;# 
  2320  0517                     	;# 
  2321  0518                     	;# 
  2322  0519                     	;# 
  2323  051A                     	;# 
  2324  051B                     	;# 
  2325  051C                     	;# 
  2326  051D                     	;# 
  2327  058C                     	;# 
  2328  058C                     	;# 
  2329  058D                     	;# 
  2330  058E                     	;# 
  2331  058F                     	;# 
  2332  058F                     	;# 
  2333  0590                     	;# 
  2334  0591                     	;# 
  2335  0592                     	;# 
  2336  0593                     	;# 
  2337  060C                     	;# 
  2338  060D                     	;# 
  2339  060E                     	;# 
  2340  060F                     	;# 
  2341  0610                     	;# 
  2342  0611                     	;# 
  2343  0612                     	;# 
  2344  0613                     	;# 
  2345  0614                     	;# 
  2346  0616                     	;# 
  2347  0617                     	;# 
  2348  0618                     	;# 
  2349  0619                     	;# 
  2350  061A                     	;# 
  2351  061B                     	;# 
  2352  061C                     	;# 
  2353  061D                     	;# 
  2354  061E                     	;# 
  2355  068C                     	;# 
  2356  068D                     	;# 
  2357  068E                     	;# 
  2358  068F                     	;# 
  2359  0690                     	;# 
  2360  0691                     	;# 
  2361  0692                     	;# 
  2362  0693                     	;# 
  2363  0694                     	;# 
  2364  070C                     	;# 
  2365  070D                     	;# 
  2366  070E                     	;# 
  2367  070F                     	;# 
  2368  0710                     	;# 
  2369  0711                     	;# 
  2370  0712                     	;# 
  2371  0713                     	;# 
  2372  0714                     	;# 
  2373  0716                     	;# 
  2374  0717                     	;# 
  2375  0718                     	;# 
  2376  0719                     	;# 
  2377  071A                     	;# 
  2378  071B                     	;# 
  2379  071C                     	;# 
  2380  071D                     	;# 
  2381  071E                     	;# 
  2382  0796                     	;# 
  2383  0797                     	;# 
  2384  0798                     	;# 
  2385  0799                     	;# 
  2386  079A                     	;# 
  2387  079B                     	;# 
  2388  080C                     	;# 
  2389  080D                     	;# 
  2390  080E                     	;# 
  2391  080F                     	;# 
  2392  0810                     	;# 
  2393  0811                     	;# 
  2394  0812                     	;# 
  2395  0813                     	;# 
  2396  0814                     	;# 
  2397  081A                     	;# 
  2398  081B                     	;# 
  2399  081C                     	;# 
  2400  081D                     	;# 
  2401  081E                     	;# 
  2402  081F                     	;# 
  2403  088C                     	;# 
  2404  088D                     	;# 
  2405  088E                     	;# 
  2406  088F                     	;# 
  2407  0890                     	;# 
  2408  0891                     	;# 
  2409  0892                     	;# 
  2410  0893                     	;# 
  2411  0895                     	;# 
  2412  0896                     	;# 
  2413  0897                     	;# 
  2414  0898                     	;# 
  2415  0899                     	;# 
  2416  089A                     	;# 
  2417  089B                     	;# 
  2418  090C                     	;# 
  2419  090E                     	;# 
  2420  090F                     	;# 
  2421  091F                     	;# 
  2422  091F                     	;# 
  2423  098F                     	;# 
  2424  098F                     	;# 
  2425  0990                     	;# 
  2426  0991                     	;# 
  2427  0992                     	;# 
  2428  0993                     	;# 
  2429  0994                     	;# 
  2430  0995                     	;# 
  2431  0996                     	;# 
  2432  0997                     	;# 
  2433  0E0F                     	;# 
  2434  0E10                     	;# 
  2435  0E11                     	;# 
  2436  0E12                     	;# 
  2437  0E13                     	;# 
  2438  0E14                     	;# 
  2439  0E15                     	;# 
  2440  0E16                     	;# 
  2441  0E17                     	;# 
  2442  0E18                     	;# 
  2443  0E19                     	;# 
  2444  0E1A                     	;# 
  2445  0E1B                     	;# 
  2446  0E1C                     	;# 
  2447  0E1D                     	;# 
  2448  0E1E                     	;# 
  2449  0E1F                     	;# 
  2450  0E20                     	;# 
  2451  0E21                     	;# 
  2452  0E22                     	;# 
  2453  0E23                     	;# 
  2454  0E24                     	;# 
  2455  0E25                     	;# 
  2456  0E26                     	;# 
  2457  0E27                     	;# 
  2458  0E28                     	;# 
  2459  0E29                     	;# 
  2460  0E2A                     	;# 
  2461  0E2B                     	;# 
  2462  0E2C                     	;# 
  2463  0E2D                     	;# 
  2464  0E2E                     	;# 
  2465  0E2F                     	;# 
  2466  0E30                     	;# 
  2467  0E31                     	;# 
  2468  0E32                     	;# 
  2469  0E33                     	;# 
  2470  0E34                     	;# 
  2471  0E35                     	;# 
  2472  0E36                     	;# 
  2473  0E37                     	;# 
  2474  0E8F                     	;# 
  2475  0E90                     	;# 
  2476  0E91                     	;# 
  2477  0E92                     	;# 
  2478  0E93                     	;# 
  2479  0E94                     	;# 
  2480  0E95                     	;# 
  2481  0E96                     	;# 
  2482  0E97                     	;# 
  2483  0E9C                     	;# 
  2484  0E9D                     	;# 
  2485  0E9E                     	;# 
  2486  0EA1                     	;# 
  2487  0EA2                     	;# 
  2488  0EA3                     	;# 
  2489  0EA4                     	;# 
  2490  0EA5                     	;# 
  2491  0EA9                     	;# 
  2492  0EAA                     	;# 
  2493  0EAB                     	;# 
  2494  0EAC                     	;# 
  2495  0EB1                     	;# 
  2496  0EB2                     	;# 
  2497  0EB3                     	;# 
  2498  0EB8                     	;# 
  2499  0EB9                     	;# 
  2500  0EBA                     	;# 
  2501  0EBB                     	;# 
  2502  0EBC                     	;# 
  2503  0EBD                     	;# 
  2504  0EBE                     	;# 
  2505  0EC3                     	;# 
  2506  0EC5                     	;# 
  2507  0EC6                     	;# 
  2508  0EC7                     	;# 
  2509  0EC8                     	;# 
  2510  0EC9                     	;# 
  2511  0ECA                     	;# 
  2512  0ECB                     	;# 
  2513  0ECC                     	;# 
  2514  0F10                     	;# 
  2515  0F11                     	;# 
  2516  0F12                     	;# 
  2517  0F13                     	;# 
  2518  0F14                     	;# 
  2519  0F15                     	;# 
  2520  0F16                     	;# 
  2521  0F17                     	;# 
  2522  0F18                     	;# 
  2523  0F19                     	;# 
  2524  0F1A                     	;# 
  2525  0F1B                     	;# 
  2526  0F1C                     	;# 
  2527  0F1D                     	;# 
  2528  0F1E                     	;# 
  2529  0F1F                     	;# 
  2530  0F20                     	;# 
  2531  0F21                     	;# 
  2532  0F22                     	;# 
  2533  0F23                     	;# 
  2534  0F24                     	;# 
  2535  0F25                     	;# 
  2536  0F26                     	;# 
  2537  0F27                     	;# 
  2538  0F38                     	;# 
  2539  0F39                     	;# 
  2540  0F3A                     	;# 
  2541  0F3B                     	;# 
  2542  0F3C                     	;# 
  2543  0F3D                     	;# 
  2544  0F3E                     	;# 
  2545  0F3F                     	;# 
  2546  0F40                     	;# 
  2547  0F41                     	;# 
  2548  0F43                     	;# 
  2549  0F44                     	;# 
  2550  0F45                     	;# 
  2551  0F46                     	;# 
  2552  0F47                     	;# 
  2553  0F48                     	;# 
  2554  0F49                     	;# 
  2555  0F4A                     	;# 
  2556  0F4B                     	;# 
  2557  0F4C                     	;# 
  2558  0F4E                     	;# 
  2559  0F4F                     	;# 
  2560  0F50                     	;# 
  2561  0F51                     	;# 
  2562  0F52                     	;# 
  2563  0F53                     	;# 
  2564  0F54                     	;# 
  2565  0F55                     	;# 
  2566  0F56                     	;# 
  2567  0F57                     	;# 
  2568  0F65                     	;# 
  2569  0F68                     	;# 
  2570  0F69                     	;# 
  2571  0F6A                     	;# 
  2572  0F6B                     	;# 
  2573  0FE4                     	;# 
  2574  0FE5                     	;# 
  2575  0FE6                     	;# 
  2576  0FE7                     	;# 
  2577  0FE8                     	;# 
  2578  0FE9                     	;# 
  2579  0FEA                     	;# 
  2580  0FEB                     	;# 
  2581  0FED                     	;# 
  2582  0FEE                     	;# 
  2583  0FEF                     	;# 
  2584                           
  2585                           	psect	idataCOMMON
  2586  0746                     __pidataCOMMON:	
  2587                           
  2588                           ;initializer for _toggle
  2589  0746  3401               	retlw	1
  2590  0016                     _LATA	set	22
  2591  0016                     _LATAbits	set	22
  2592  0017                     _LATB	set	23
  2593  0018                     _LATC	set	24
  2594  0011                     _TRISA	set	17
  2595  0012                     _TRISB	set	18
  2596  0013                     _TRISC	set	19
  2597  005F                     _GIE	set	95
  2598  011F                     _BAUD1CON	set	287
  2599  0119                     _RC1REG	set	281
  2600  011D                     _RC1STA	set	285
  2601  011D                     _RC1STAbits	set	285
  2602  011C                     _SP1BRGH	set	284
  2603  011B                     _SP1BRGL	set	283
  2604  011A                     _TX1REG	set	282
  2605  011E                     _TX1STA	set	286
  2606  0299                     _PR6	set	665
  2607  029C                     _T6CLKCON	set	668
  2608  029A                     _T6CON	set	666
  2609  029A                     _T6CONbits	set	666
  2610  029B                     _T6HLT	set	667
  2611  029B                     _T6HLTbits	set	667
  2612  0299                     _T6PR	set	665
  2613  029D                     _T6RST	set	669
  2614  029D                     _T6RSTbits	set	669
  2615  0298                     _T6TMR	set	664
  2616  0298                     _TMR6	set	664
  2617  070F                     _PIR3bits	set	1807
  2618  0710                     _PIR4bits	set	1808
  2619  088D                     _OSCCON1	set	2189
  2620  088F                     _OSCCON3	set	2191
  2621  0891                     _OSCEN	set	2193
  2622  0893                     _OSCFRQ	set	2195
  2623  0892                     _OSCTUNE	set	2194
  2624  0E8F                     _PPSLOCK	set	3727
  2625  0E8F                     _PPSLOCKbits	set	3727
  2626  0E9E                     _T6AINPPSbits	set	3742
  2627  0F38                     _ANSELA	set	3896
  2628  0F43                     _ANSELB	set	3907
  2629  0F4E                     _ANSELC	set	3918
  2630  0F3A                     _ODCONA	set	3898
  2631  0F45                     _ODCONB	set	3909
  2632  0F50                     _ODCONC	set	3920
  2633  0F20                     _RC0PPS	set	3872
  2634  0F26                     _RC6PPS	set	3878
  2635  0F39                     _WPUA	set	3897
  2636  0F44                     _WPUB	set	3908
  2637  0F4F                     _WPUC	set	3919
  2638  0F65                     _WPUE	set	3941
  2639                           
  2640                           ; #config settings
  2641  0000                     
  2642                           	psect	cinit
  2643  07F8                     start_initialization:	
  2644  07F8                     __initialization:	
  2645                           
  2646                           ; Initialize objects allocated to COMMON
  2647  07F8  3187  2746         	fcall	__pidataCOMMON	;fetch initializer
  2648  07FA  00F2               	movwf	__pdataCOMMON& (0+127)
  2649                           
  2650                           ; Clear objects allocated to COMMON
  2651  07FB  01F0               	clrf	__pbssCOMMON& (0+127)
  2652  07FC  01F1               	clrf	(__pbssCOMMON+1)& (0+127)
  2653  07FD                     end_of_initialization:	
  2654                           ;End of C runtime variable initialization code
  2655                           
  2656  07FD                     __end_of__initialization:	
  2657  07FD  0020               	movlb	0
  2658  07FE  3187  2F8C         	ljmp	_main	;jump to C main() function
  2659                           
  2660                           	psect	bssCOMMON
  2661  0070                     __pbssCOMMON:	
  2662  0070                     _TMR6_InterruptHandler:	
  2663  0070                     	ds	2
  2664                           
  2665                           	psect	dataCOMMON
  2666  0072                     __pdataCOMMON:	
  2667  0072                     _toggle:	
  2668  0072                     	ds	1
  2669                           
  2670                           	psect	cstackCOMMON
  2671  0073                     __pcstackCOMMON:	
  2672  0073                     ?_TMR6_Start:	
  2673  0073                     ??_TMR6_Start:	
  2674                           ; 1 bytes @ 0x0
  2675                           
  2676  0073                     ?_PIN_MANAGER_Initialize:	
  2677                           ; 1 bytes @ 0x0
  2678                           
  2679  0073                     ??_PIN_MANAGER_Initialize:	
  2680                           ; 1 bytes @ 0x0
  2681                           
  2682  0073                     ?_OSCILLATOR_Initialize:	
  2683                           ; 1 bytes @ 0x0
  2684                           
  2685  0073                     ??_OSCILLATOR_Initialize:	
  2686                           ; 1 bytes @ 0x0
  2687                           
  2688  0073                     ?_EUSART_Initialize:	
  2689                           ; 1 bytes @ 0x0
  2690                           
  2691  0073                     ??_EUSART_Initialize:	
  2692                           ; 1 bytes @ 0x0
  2693                           
  2694  0073                     ?_EUSART_Write:	
  2695                           ; 1 bytes @ 0x0
  2696                           
  2697  0073                     ??_EUSART_Write:	
  2698                           ; 1 bytes @ 0x0
  2699                           
  2700  0073                     ?_TMR6_Initialize:	
  2701                           ; 1 bytes @ 0x0
  2702                           
  2703  0073                     ??_TMR6_Initialize:	
  2704                           ; 1 bytes @ 0x0
  2705                           
  2706  0073                     ?_TMR6_HasOverflowOccured:	
  2707                           ; 1 bytes @ 0x0
  2708                           
  2709  0073                     ??_TMR6_HasOverflowOccured:	
  2710                           ; 1 bytes @ 0x0
  2711                           
  2712  0073                     ?_SYSTEM_Initialize:	
  2713                           ; 1 bytes @ 0x0
  2714                           
  2715  0073                     ?_main:	
  2716                           ; 1 bytes @ 0x0
  2717                           
  2718  0073                     EUSART_Write@txData:	
  2719                           ; 1 bytes @ 0x0
  2720                           
  2721  0073                     TMR6_HasOverflowOccured@status:	
  2722                           ; 1 bytes @ 0x0
  2723                           
  2724  0073                     PIN_MANAGER_Initialize@state:	
  2725                           ; 1 bytes @ 0x0
  2726                           
  2727                           
  2728                           ; 1 bytes @ 0x0
  2729  0073                     	ds	1
  2730  0074                     ??_SYSTEM_Initialize:	
  2731  0074                     ??_main:	
  2732                           ; 1 bytes @ 0x1
  2733                           
  2734                           
  2735                           	psect	maintext
  2736  078C                     __pmaintext:	
  2737                           ; 1 bytes @ 0x1
  2738 ;;
  2739 ;;Main: autosize = 0, tempsize = 0, incstack = 0, save=0
  2740 ;;
  2741 ;; *************** function _main *****************
  2742 ;; Defined at:
  2743 ;;		line 5 in file "main.c"
  2744 ;; Parameters:    Size  Location     Type
  2745 ;;		None
  2746 ;; Auto vars:     Size  Location     Type
  2747 ;;		None
  2748 ;; Return value:  Size  Location     Type
  2749 ;;                  1    wreg      void 
  2750 ;; Registers used:
  2751 ;;		wreg, status,2, status,0, pclath, cstack
  2752 ;; Tracked objects:
  2753 ;;		On entry : B1F/0
  2754 ;;		On exit  : 0/0
  2755 ;;		Unchanged: 0/0
  2756 ;; Data sizes:     COMMON   BANK0   BANK1   BANK2   BANK3   BANK4   BANK5   BANK6   BANK7   BANK8   BANK9  BANK10  BANK1
      +1  BANK12
  2757 ;;      Params:         0       0       0       0       0       0       0       0       0       0       0       0       
      +0       0
  2758 ;;      Locals:         0       0       0       0       0       0       0       0       0       0       0       0       
      +0       0
  2759 ;;      Temps:          0       0       0       0       0       0       0       0       0       0       0       0       
      +0       0
  2760 ;;      Totals:         0       0       0       0       0       0       0       0       0       0       0       0       
      +0       0
  2761 ;;Total ram usage:        0 bytes
  2762 ;; Hardware stack levels required when called:    3
  2763 ;; This function calls:
  2764 ;;		_EUSART_Write
  2765 ;;		_SYSTEM_Initialize
  2766 ;;		_TMR6_HasOverflowOccured
  2767 ;; This function is called by:
  2768 ;;		Startup code after reset
  2769 ;; This function uses a non-reentrant model
  2770 ;;
  2771                           
  2772                           
  2773                           ;psect for function _main
  2774  078C                     _main:	
  2775                           
  2776                           ;main.c: 7: SYSTEM_Initialize();
  2777                           
  2778                           ;incstack = 0
  2779                           ; Regs used in _main: [wreg+status,2+status,0+pclath+cstack]
  2780  078C  3187  2771  3187   	fcall	_SYSTEM_Initialize
  2781  078F                     l198:	
  2782                           ;main.c: 11: while (1)
  2783                           
  2784                           
  2785                           ;main.c: 12: {
  2786                           ;main.c: 13: if (TMR6_HasOverflowOccured())
  2787  078F  3187  275B  3187   	fcall	_TMR6_HasOverflowOccured
  2788  0792  3A00               	xorlw	0
  2789  0793  1903               	skipnz
  2790  0794  2F8F               	goto	l198
  2791                           
  2792                           ;main.c: 14: {
  2793                           ;main.c: 15: do { LATAbits.LATA0 = ~LATAbits.LATA0; } while(0);
  2794  0795  1003               	clrc
  2795  0796  0020               	movlb	0	; select bank0
  2796  0797  1C16               	btfss	22,0	;volatile
  2797  0798  1403               	setc
  2798  0799  1C03               	btfss	3,0
  2799  079A  2F9E               	goto	u80
  2800  079B  0020               	movlb	0	; select bank0
  2801  079C  1416               	bsf	22,0	;volatile
  2802  079D  2FA0               	goto	l786
  2803  079E                     u80:	
  2804  079E  0020               	movlb	0	; select bank0
  2805  079F  1016               	bcf	22,0	;volatile
  2806  07A0                     l786:	
  2807                           
  2808                           ;main.c: 16: if (toggle)
  2809  07A0  0872               	movf	_toggle,w
  2810  07A1  1903               	btfsc	3,2
  2811  07A2  2FB1               	goto	l792
  2812                           
  2813                           ;main.c: 17: {
  2814                           ;main.c: 18: EUSART_Write(0x41);
  2815  07A3  3041               	movlw	65
  2816  07A4  3187  274A  3187   	fcall	_EUSART_Write
  2817                           
  2818                           ;main.c: 19: EUSART_Write(0x42);
  2819  07A7  3042               	movlw	66
  2820  07A8  3187  274A  3187   	fcall	_EUSART_Write
  2821                           
  2822                           ;main.c: 20: EUSART_Write(0x0D);
  2823  07AB  300D               	movlw	13
  2824  07AC  3187  274A  3187   	fcall	_EUSART_Write
  2825                           
  2826                           ;main.c: 21: toggle = 0;
  2827  07AF  01F2               	clrf	_toggle
  2828                           
  2829                           ;main.c: 22: }
  2830  07B0  2F8F               	goto	l198
  2831  07B1                     l792:	
  2832                           
  2833                           ;main.c: 23: else
  2834                           ;main.c: 24: {
  2835                           ;main.c: 25: EUSART_Write(0x46);
  2836  07B1  3046               	movlw	70
  2837  07B2  3187  274A  3187   	fcall	_EUSART_Write
  2838                           
  2839                           ;main.c: 26: EUSART_Write(0x47);
  2840  07B5  3047               	movlw	71
  2841  07B6  3187  274A  3187   	fcall	_EUSART_Write
  2842                           
  2843                           ;main.c: 27: EUSART_Write(0x0D);
  2844  07B9  300D               	movlw	13
  2845  07BA  3187  274A  3187   	fcall	_EUSART_Write
  2846                           
  2847                           ;main.c: 28: toggle = 1;
  2848  07BD  01F2               	clrf	_toggle
  2849  07BE  0AF2               	incf	_toggle,f
  2850  07BF  2F8F               	goto	l198
  2851  07C0                     __end_of_main:	
  2852                           
  2853                           	psect	text1
  2854  075B                     __ptext1:	
  2855 ;; *************** function _TMR6_HasOverflowOccured *****************
  2856 ;; Defined at:
  2857 ;;		line 161 in file "mcc_generated_files/tmr6.c"
  2858 ;; Parameters:    Size  Location     Type
  2859 ;;		None
  2860 ;; Auto vars:     Size  Location     Type
  2861 ;;  status          1    0[COMMON] unsigned char 
  2862 ;; Return value:  Size  Location     Type
  2863 ;;                  1    wreg      unsigned char 
  2864 ;; Registers used:
  2865 ;;		wreg, status,2, status,0
  2866 ;; Tracked objects:
  2867 ;;		On entry : 0/0
  2868 ;;		On exit  : 0/0
  2869 ;;		Unchanged: 0/0
  2870 ;; Data sizes:     COMMON   BANK0   BANK1   BANK2   BANK3   BANK4   BANK5   BANK6   BANK7   BANK8   BANK9  BANK10  BANK1
      +1  BANK12
  2871 ;;      Params:         0       0       0       0       0       0       0       0       0       0       0       0       
      +0       0
  2872 ;;      Locals:         1       0       0       0       0       0       0       0       0       0       0       0       
      +0       0
  2873 ;;      Temps:          0       0       0       0       0       0       0       0       0       0       0       0       
      +0       0
  2874 ;;      Totals:         1       0       0       0       0       0       0       0       0       0       0       0       
      +0       0
  2875 ;;Total ram usage:        1 bytes
  2876 ;; Hardware stack levels used:    1
  2877 ;; This function calls:
  2878 ;;		Nothing
  2879 ;; This function is called by:
  2880 ;;		_main
  2881 ;; This function uses a non-reentrant model
  2882 ;;
  2883                           
  2884                           
  2885                           ;psect for function _TMR6_HasOverflowOccured
  2886  075B                     _TMR6_HasOverflowOccured:	
  2887                           
  2888                           ;tmr6.c: 164: bool status = PIR4bits.TMR6IF;
  2889                           
  2890                           ;incstack = 0
  2891                           ; Regs used in _TMR6_HasOverflowOccured: [wreg+status,2+status,0]
  2892  075B  3000               	movlw	0
  2893  075C  002E               	movlb	14	; select bank14
  2894  075D  1A90               	btfsc	16,5	;volatile
  2895  075E  3001               	movlw	1
  2896  075F  00F3               	movwf	TMR6_HasOverflowOccured@status
  2897                           
  2898                           ;tmr6.c: 165: if(status)
  2899  0760  0873               	movf	TMR6_HasOverflowOccured@status,w
  2900  0761  1D03               	btfss	3,2
  2901                           
  2902                           ;tmr6.c: 166: {
  2903                           ;tmr6.c: 168: PIR4bits.TMR6IF = 0;
  2904  0762  1290               	bcf	16,5	;volatile
  2905                           
  2906                           ;tmr6.c: 169: }
  2907                           ;tmr6.c: 170: return status;
  2908  0763  0873               	movf	TMR6_HasOverflowOccured@status,w
  2909  0764  0008               	return
  2910  0765                     __end_of_TMR6_HasOverflowOccured:	
  2911                           
  2912                           	psect	text2
  2913  0771                     __ptext2:	
  2914 ;; *************** function _SYSTEM_Initialize *****************
  2915 ;; Defined at:
  2916 ;;		line 82 in file "mcc_generated_files/mcc.c"
  2917 ;; Parameters:    Size  Location     Type
  2918 ;;		None
  2919 ;; Auto vars:     Size  Location     Type
  2920 ;;		None
  2921 ;; Return value:  Size  Location     Type
  2922 ;;                  1    wreg      void 
  2923 ;; Registers used:
  2924 ;;		wreg, status,2, status,0, pclath, cstack
  2925 ;; Tracked objects:
  2926 ;;		On entry : 0/0
  2927 ;;		On exit  : 0/0
  2928 ;;		Unchanged: 0/0
  2929 ;; Data sizes:     COMMON   BANK0   BANK1   BANK2   BANK3   BANK4   BANK5   BANK6   BANK7   BANK8   BANK9  BANK10  BANK1
      +1  BANK12
  2930 ;;      Params:         0       0       0       0       0       0       0       0       0       0       0       0       
      +0       0
  2931 ;;      Locals:         0       0       0       0       0       0       0       0       0       0       0       0       
      +0       0
  2932 ;;      Temps:          0       0       0       0       0       0       0       0       0       0       0       0       
      +0       0
  2933 ;;      Totals:         0       0       0       0       0       0       0       0       0       0       0       0       
      +0       0
  2934 ;;Total ram usage:        0 bytes
  2935 ;; Hardware stack levels used:    1
  2936 ;; Hardware stack levels required when called:    2
  2937 ;; This function calls:
  2938 ;;		_EUSART_Initialize
  2939 ;;		_OSCILLATOR_Initialize
  2940 ;;		_PIN_MANAGER_Initialize
  2941 ;;		_TMR6_Initialize
  2942 ;; This function is called by:
  2943 ;;		_main
  2944 ;; This function uses a non-reentrant model
  2945 ;;
  2946                           
  2947                           
  2948                           ;psect for function _SYSTEM_Initialize
  2949  0771                     _SYSTEM_Initialize:	
  2950                           
  2951                           ;mcc.c: 85: PIN_MANAGER_Initialize();
  2952                           
  2953                           ;incstack = 0
  2954                           ; Regs used in _SYSTEM_Initialize: [wreg+status,2+status,0+pclath+cstack]
  2955  0771  3187  27C0  3187   	fcall	_PIN_MANAGER_Initialize
  2956                           
  2957                           ;mcc.c: 86: OSCILLATOR_Initialize();
  2958  0774  3187  2752  3187   	fcall	_OSCILLATOR_Initialize
  2959                           
  2960                           ;mcc.c: 87: TMR6_Initialize();
  2961  0777  3187  277D  3187   	fcall	_TMR6_Initialize
  2962                           
  2963                           ;mcc.c: 88: EUSART_Initialize();
  2964  077A  3187  2765         	fcall	_EUSART_Initialize
  2965  077C  0008               	return
  2966  077D                     __end_of_SYSTEM_Initialize:	
  2967                           
  2968                           	psect	text3
  2969  077D                     __ptext3:	
  2970 ;; *************** function _TMR6_Initialize *****************
  2971 ;; Defined at:
  2972 ;;		line 63 in file "mcc_generated_files/tmr6.c"
  2973 ;; Parameters:    Size  Location     Type
  2974 ;;		None
  2975 ;; Auto vars:     Size  Location     Type
  2976 ;;		None
  2977 ;; Return value:  Size  Location     Type
  2978 ;;                  1    wreg      void 
  2979 ;; Registers used:
  2980 ;;		wreg, status,2, status,0, pclath, cstack
  2981 ;; Tracked objects:
  2982 ;;		On entry : 0/0
  2983 ;;		On exit  : 0/0
  2984 ;;		Unchanged: 0/0
  2985 ;; Data sizes:     COMMON   BANK0   BANK1   BANK2   BANK3   BANK4   BANK5   BANK6   BANK7   BANK8   BANK9  BANK10  BANK1
      +1  BANK12
  2986 ;;      Params:         0       0       0       0       0       0       0       0       0       0       0       0       
      +0       0
  2987 ;;      Locals:         0       0       0       0       0       0       0       0       0       0       0       0       
      +0       0
  2988 ;;      Temps:          0       0       0       0       0       0       0       0       0       0       0       0       
      +0       0
  2989 ;;      Totals:         0       0       0       0       0       0       0       0       0       0       0       0       
      +0       0
  2990 ;;Total ram usage:        0 bytes
  2991 ;; Hardware stack levels used:    1
  2992 ;; Hardware stack levels required when called:    1
  2993 ;; This function calls:
  2994 ;;		_TMR6_Start
  2995 ;; This function is called by:
  2996 ;;		_SYSTEM_Initialize
  2997 ;; This function uses a non-reentrant model
  2998 ;;
  2999                           
  3000                           
  3001                           ;psect for function _TMR6_Initialize
  3002  077D                     _TMR6_Initialize:	
  3003                           
  3004                           ;tmr6.c: 68: T6CON = 0x70;
  3005                           
  3006                           ;incstack = 0
  3007                           ; Regs used in _TMR6_Initialize: [wreg+status,2+status,0+pclath+cstack]
  3008  077D  3070               	movlw	112
  3009  077E  0025               	movlb	5	; select bank5
  3010  077F  009A               	movwf	26	;volatile
  3011                           
  3012                           ;tmr6.c: 71: T6CLKCON = 0x04;
  3013  0780  3004               	movlw	4
  3014  0781  009C               	movwf	28	;volatile
  3015                           
  3016                           ;tmr6.c: 74: T6HLT = 0x00;
  3017  0782  019B               	clrf	27	;volatile
  3018                           
  3019                           ;tmr6.c: 77: T6RST = 0x00;
  3020  0783  019D               	clrf	29	;volatile
  3021                           
  3022                           ;tmr6.c: 80: T6PR = 0xFD;
  3023  0784  30FD               	movlw	253
  3024  0785  0099               	movwf	25	;volatile
  3025                           
  3026                           ;tmr6.c: 83: T6TMR = 0x00;
  3027  0786  0198               	clrf	24	;volatile
  3028                           
  3029                           ;tmr6.c: 86: PIR4bits.TMR6IF = 0;
  3030  0787  002E               	movlb	14	; select bank14
  3031  0788  1290               	bcf	16,5	;volatile
  3032                           
  3033                           ;tmr6.c: 89: TMR6_Start();
  3034  0789  3187  2747         	fcall	_TMR6_Start
  3035  078B  0008               	return
  3036  078C                     __end_of_TMR6_Initialize:	
  3037                           
  3038                           	psect	text4
  3039  0747                     __ptext4:	
  3040 ;; *************** function _TMR6_Start *****************
  3041 ;; Defined at:
  3042 ;;		line 104 in file "mcc_generated_files/tmr6.c"
  3043 ;; Parameters:    Size  Location     Type
  3044 ;;		None
  3045 ;; Auto vars:     Size  Location     Type
  3046 ;;		None
  3047 ;; Return value:  Size  Location     Type
  3048 ;;                  1    wreg      void 
  3049 ;; Registers used:
  3050 ;;		None
  3051 ;; Tracked objects:
  3052 ;;		On entry : 0/0
  3053 ;;		On exit  : 0/0
  3054 ;;		Unchanged: 0/0
  3055 ;; Data sizes:     COMMON   BANK0   BANK1   BANK2   BANK3   BANK4   BANK5   BANK6   BANK7   BANK8   BANK9  BANK10  BANK1
      +1  BANK12
  3056 ;;      Params:         0       0       0       0       0       0       0       0       0       0       0       0       
      +0       0
  3057 ;;      Locals:         0       0       0       0       0       0       0       0       0       0       0       0       
      +0       0
  3058 ;;      Temps:          0       0       0       0       0       0       0       0       0       0       0       0       
      +0       0
  3059 ;;      Totals:         0       0       0       0       0       0       0       0       0       0       0       0       
      +0       0
  3060 ;;Total ram usage:        0 bytes
  3061 ;; Hardware stack levels used:    1
  3062 ;; This function calls:
  3063 ;;		Nothing
  3064 ;; This function is called by:
  3065 ;;		_TMR6_Initialize
  3066 ;;		_TMR6_StartTimer
  3067 ;; This function uses a non-reentrant model
  3068 ;;
  3069                           
  3070                           
  3071                           ;psect for function _TMR6_Start
  3072  0747                     _TMR6_Start:	
  3073                           
  3074                           ;tmr6.c: 107: T6CONbits.TMR6ON = 1;
  3075                           
  3076                           ;incstack = 0
  3077                           ; Regs used in _TMR6_Start: []
  3078  0747  0025               	movlb	5	; select bank5
  3079  0748  179A               	bsf	26,7	;volatile
  3080  0749  0008               	return
  3081  074A                     __end_of_TMR6_Start:	
  3082                           
  3083                           	psect	text5
  3084  07C0                     __ptext5:	
  3085 ;; *************** function _PIN_MANAGER_Initialize *****************
  3086 ;; Defined at:
  3087 ;;		line 51 in file "mcc_generated_files/pin_manager.c"
  3088 ;; Parameters:    Size  Location     Type
  3089 ;;		None
  3090 ;; Auto vars:     Size  Location     Type
  3091 ;;  state           1    0[COMMON] unsigned char 
  3092 ;; Return value:  Size  Location     Type
  3093 ;;                  1    wreg      void 
  3094 ;; Registers used:
  3095 ;;		wreg, status,2, status,0
  3096 ;; Tracked objects:
  3097 ;;		On entry : 0/0
  3098 ;;		On exit  : 0/0
  3099 ;;		Unchanged: 0/0
  3100 ;; Data sizes:     COMMON   BANK0   BANK1   BANK2   BANK3   BANK4   BANK5   BANK6   BANK7   BANK8   BANK9  BANK10  BANK1
      +1  BANK12
  3101 ;;      Params:         0       0       0       0       0       0       0       0       0       0       0       0       
      +0       0
  3102 ;;      Locals:         1       0       0       0       0       0       0       0       0       0       0       0       
      +0       0
  3103 ;;      Temps:          0       0       0       0       0       0       0       0       0       0       0       0       
      +0       0
  3104 ;;      Totals:         1       0       0       0       0       0       0       0       0       0       0       0       
      +0       0
  3105 ;;Total ram usage:        1 bytes
  3106 ;; Hardware stack levels used:    1
  3107 ;; This function calls:
  3108 ;;		Nothing
  3109 ;; This function is called by:
  3110 ;;		_SYSTEM_Initialize
  3111 ;; This function uses a non-reentrant model
  3112 ;;
  3113                           
  3114                           
  3115                           ;psect for function _PIN_MANAGER_Initialize
  3116  07C0                     _PIN_MANAGER_Initialize:	
  3117                           
  3118                           ;pin_manager.c: 56: LATA = 0x00;
  3119                           
  3120                           ;incstack = 0
  3121                           ; Regs used in _PIN_MANAGER_Initialize: [wreg+status,2+status,0]
  3122  07C0  0020               	movlb	0	; select bank0
  3123  07C1  0196               	clrf	22	;volatile
  3124                           
  3125                           ;pin_manager.c: 57: LATB = 0x00;
  3126  07C2  0197               	clrf	23	;volatile
  3127                           
  3128                           ;pin_manager.c: 58: LATC = 0x00;
  3129  07C3  0198               	clrf	24	;volatile
  3130                           
  3131                           ;pin_manager.c: 63: TRISA = 0xFE;
  3132  07C4  30FE               	movlw	254
  3133  07C5  0091               	movwf	17	;volatile
  3134                           
  3135                           ;pin_manager.c: 64: TRISB = 0xFF;
  3136  07C6  30FF               	movlw	255
  3137  07C7  0092               	movwf	18	;volatile
  3138                           
  3139                           ;pin_manager.c: 65: TRISC = 0xBE;
  3140  07C8  30BE               	movlw	190
  3141  07C9  0093               	movwf	19	;volatile
  3142                           
  3143                           ;pin_manager.c: 70: ANSELC = 0xFF;
  3144  07CA  30FF               	movlw	255
  3145  07CB  003E               	movlb	30	; select bank30
  3146  07CC  00CE               	movwf	78	;volatile
  3147                           
  3148                           ;pin_manager.c: 71: ANSELB = 0x7F;
  3149  07CD  307F               	movlw	127
  3150  07CE  00C3               	movwf	67	;volatile
  3151                           
  3152                           ;pin_manager.c: 72: ANSELA = 0xFF;
  3153  07CF  30FF               	movlw	255
  3154  07D0  00B8               	movwf	56	;volatile
  3155                           
  3156                           ;pin_manager.c: 77: WPUE = 0x00;
  3157  07D1  01E5               	clrf	101	;volatile
  3158                           
  3159                           ;pin_manager.c: 78: WPUB = 0x00;
  3160  07D2  01C4               	clrf	68	;volatile
  3161                           
  3162                           ;pin_manager.c: 79: WPUA = 0x00;
  3163  07D3  01B9               	clrf	57	;volatile
  3164                           
  3165                           ;pin_manager.c: 80: WPUC = 0x00;
  3166  07D4  01CF               	clrf	79	;volatile
  3167                           
  3168                           ;pin_manager.c: 85: ODCONA = 0x00;
  3169  07D5  01BA               	clrf	58	;volatile
  3170                           
  3171                           ;pin_manager.c: 86: ODCONB = 0x00;
  3172  07D6  01C5               	clrf	69	;volatile
  3173                           
  3174                           ;pin_manager.c: 87: ODCONC = 0x00;
  3175  07D7  01D0               	clrf	80	;volatile
  3176                           
  3177                           ;pin_manager.c: 94: bool state = GIE;
  3178  07D8  3000               	movlw	0
  3179  07D9  1B8B               	btfsc	11,7	;volatile
  3180  07DA  3001               	movlw	1
  3181  07DB  00F3               	movwf	PIN_MANAGER_Initialize@state
  3182                           
  3183                           ;pin_manager.c: 95: GIE = 0;
  3184  07DC  138B               	bcf	11,7	;volatile
  3185                           
  3186                           ;pin_manager.c: 96: PPSLOCK = 0x55;
  3187  07DD  3055               	movlw	85
  3188  07DE  003D               	movlb	29	; select bank29
  3189  07DF  008F               	movwf	15	;volatile
  3190                           
  3191                           ;pin_manager.c: 97: PPSLOCK = 0xAA;
  3192  07E0  30AA               	movlw	170
  3193  07E1  008F               	movwf	15	;volatile
  3194                           
  3195                           ;pin_manager.c: 98: PPSLOCKbits.PPSLOCKED = 0x00;
  3196  07E2  100F               	bcf	15,0	;volatile
  3197                           
  3198                           ;pin_manager.c: 100: T6AINPPSbits.T6AINPPS = 0x0F;
  3199  07E3  081E               	movf	30,w	;volatile
  3200  07E4  39E0               	andlw	-32
  3201  07E5  380F               	iorlw	15
  3202  07E6  009E               	movwf	30	;volatile
  3203                           
  3204                           ;pin_manager.c: 101: RC0PPS = 0x10;
  3205  07E7  3010               	movlw	16
  3206  07E8  003E               	movlb	30	; select bank30
  3207  07E9  00A0               	movwf	32	;volatile
  3208                           
  3209                           ;pin_manager.c: 102: RC6PPS = 0x10;
  3210  07EA  3010               	movlw	16
  3211  07EB  00A6               	movwf	38	;volatile
  3212                           
  3213                           ;pin_manager.c: 104: PPSLOCK = 0x55;
  3214  07EC  3055               	movlw	85
  3215  07ED  003D               	movlb	29	; select bank29
  3216  07EE  008F               	movwf	15	;volatile
  3217                           
  3218                           ;pin_manager.c: 105: PPSLOCK = 0xAA;
  3219  07EF  30AA               	movlw	170
  3220  07F0  008F               	movwf	15	;volatile
  3221                           
  3222                           ;pin_manager.c: 106: PPSLOCKbits.PPSLOCKED = 0x01;
  3223  07F1  140F               	bsf	15,0	;volatile
  3224                           
  3225                           ;pin_manager.c: 108: GIE = state;
  3226  07F2  1C73               	btfss	PIN_MANAGER_Initialize@state,0
  3227  07F3  2FF6               	goto	u10
  3228  07F4  178B               	bsf	11,7	;volatile
  3229  07F5  0008               	return
  3230  07F6                     u10:	
  3231  07F6  138B               	bcf	11,7	;volatile
  3232  07F7  0008               	return
  3233  07F8                     __end_of_PIN_MANAGER_Initialize:	
  3234                           
  3235                           	psect	text6
  3236  0752                     __ptext6:	
  3237 ;; *************** function _OSCILLATOR_Initialize *****************
  3238 ;; Defined at:
  3239 ;;		line 91 in file "mcc_generated_files/mcc.c"
  3240 ;; Parameters:    Size  Location     Type
  3241 ;;		None
  3242 ;; Auto vars:     Size  Location     Type
  3243 ;;		None
  3244 ;; Return value:  Size  Location     Type
  3245 ;;                  1    wreg      void 
  3246 ;; Registers used:
  3247 ;;		wreg, status,2
  3248 ;; Tracked objects:
  3249 ;;		On entry : 0/0
  3250 ;;		On exit  : 0/0
  3251 ;;		Unchanged: 0/0
  3252 ;; Data sizes:     COMMON   BANK0   BANK1   BANK2   BANK3   BANK4   BANK5   BANK6   BANK7   BANK8   BANK9  BANK10  BANK1
      +1  BANK12
  3253 ;;      Params:         0       0       0       0       0       0       0       0       0       0       0       0       
      +0       0
  3254 ;;      Locals:         0       0       0       0       0       0       0       0       0       0       0       0       
      +0       0
  3255 ;;      Temps:          0       0       0       0       0       0       0       0       0       0       0       0       
      +0       0
  3256 ;;      Totals:         0       0       0       0       0       0       0       0       0       0       0       0       
      +0       0
  3257 ;;Total ram usage:        0 bytes
  3258 ;; Hardware stack levels used:    1
  3259 ;; This function calls:
  3260 ;;		Nothing
  3261 ;; This function is called by:
  3262 ;;		_SYSTEM_Initialize
  3263 ;; This function uses a non-reentrant model
  3264 ;;
  3265                           
  3266                           
  3267                           ;psect for function _OSCILLATOR_Initialize
  3268  0752                     _OSCILLATOR_Initialize:	
  3269                           
  3270                           ;mcc.c: 94: OSCCON1 = 0x10;
  3271                           
  3272                           ;incstack = 0
  3273                           ; Regs used in _OSCILLATOR_Initialize: [wreg+status,2]
  3274  0752  3010               	movlw	16
  3275  0753  0031               	movlb	17	; select bank17
  3276  0754  008D               	movwf	13	;volatile
  3277                           
  3278                           ;mcc.c: 96: OSCCON3 = 0x00;
  3279  0755  018F               	clrf	15	;volatile
  3280                           
  3281                           ;mcc.c: 98: OSCEN = 0x00;
  3282  0756  0191               	clrf	17	;volatile
  3283                           
  3284                           ;mcc.c: 100: OSCFRQ = 0x05;
  3285  0757  3005               	movlw	5
  3286  0758  0093               	movwf	19	;volatile
  3287                           
  3288                           ;mcc.c: 102: OSCTUNE = 0x00;
  3289  0759  0192               	clrf	18	;volatile
  3290  075A  0008               	return
  3291  075B                     __end_of_OSCILLATOR_Initialize:	
  3292                           
  3293                           	psect	text7
  3294  0765                     __ptext7:	
  3295 ;; *************** function _EUSART_Initialize *****************
  3296 ;; Defined at:
  3297 ;;		line 55 in file "mcc_generated_files/eusart.c"
  3298 ;; Parameters:    Size  Location     Type
  3299 ;;		None
  3300 ;; Auto vars:     Size  Location     Type
  3301 ;;		None
  3302 ;; Return value:  Size  Location     Type
  3303 ;;                  1    wreg      void 
  3304 ;; Registers used:
  3305 ;;		wreg
  3306 ;; Tracked objects:
  3307 ;;		On entry : 0/0
  3308 ;;		On exit  : 0/0
  3309 ;;		Unchanged: 0/0
  3310 ;; Data sizes:     COMMON   BANK0   BANK1   BANK2   BANK3   BANK4   BANK5   BANK6   BANK7   BANK8   BANK9  BANK10  BANK1
      +1  BANK12
  3311 ;;      Params:         0       0       0       0       0       0       0       0       0       0       0       0       
      +0       0
  3312 ;;      Locals:         0       0       0       0       0       0       0       0       0       0       0       0       
      +0       0
  3313 ;;      Temps:          0       0       0       0       0       0       0       0       0       0       0       0       
      +0       0
  3314 ;;      Totals:         0       0       0       0       0       0       0       0       0       0       0       0       
      +0       0
  3315 ;;Total ram usage:        0 bytes
  3316 ;; Hardware stack levels used:    1
  3317 ;; This function calls:
  3318 ;;		Nothing
  3319 ;; This function is called by:
  3320 ;;		_SYSTEM_Initialize
  3321 ;; This function uses a non-reentrant model
  3322 ;;
  3323                           
  3324                           
  3325                           ;psect for function _EUSART_Initialize
  3326  0765                     _EUSART_Initialize:	
  3327                           
  3328                           ;eusart.c: 60: BAUD1CON = 0x08;
  3329                           
  3330                           ;incstack = 0
  3331                           ; Regs used in _EUSART_Initialize: [wreg]
  3332  0765  3008               	movlw	8
  3333  0766  0022               	movlb	2	; select bank2
  3334  0767  009F               	movwf	31	;volatile
  3335                           
  3336                           ;eusart.c: 63: RC1STA = 0x80;
  3337  0768  3080               	movlw	128
  3338  0769  009D               	movwf	29	;volatile
  3339                           
  3340                           ;eusart.c: 66: TX1STA = 0x24;
  3341  076A  3024               	movlw	36
  3342  076B  009E               	movwf	30	;volatile
  3343                           
  3344                           ;eusart.c: 69: SP1BRGL = 0x40;
  3345  076C  3040               	movlw	64
  3346  076D  009B               	movwf	27	;volatile
  3347                           
  3348                           ;eusart.c: 72: SP1BRGH = 0x03;
  3349  076E  3003               	movlw	3
  3350  076F  009C               	movwf	28	;volatile
  3351  0770  0008               	return
  3352  0771                     __end_of_EUSART_Initialize:	
  3353                           
  3354                           	psect	text8
  3355  074A                     __ptext8:	
  3356 ;; *************** function _EUSART_Write *****************
  3357 ;; Defined at:
  3358 ;;		line 97 in file "mcc_generated_files/eusart.c"
  3359 ;; Parameters:    Size  Location     Type
  3360 ;;  txData          1    wreg     unsigned char 
  3361 ;; Auto vars:     Size  Location     Type
  3362 ;;  txData          1    0[COMMON] unsigned char 
  3363 ;; Return value:  Size  Location     Type
  3364 ;;                  1    wreg      void 
  3365 ;; Registers used:
  3366 ;;		wreg
  3367 ;; Tracked objects:
  3368 ;;		On entry : 0/0
  3369 ;;		On exit  : 0/0
  3370 ;;		Unchanged: 0/0
  3371 ;; Data sizes:     COMMON   BANK0   BANK1   BANK2   BANK3   BANK4   BANK5   BANK6   BANK7   BANK8   BANK9  BANK10  BANK1
      +1  BANK12
  3372 ;;      Params:         0       0       0       0       0       0       0       0       0       0       0       0       
      +0       0
  3373 ;;      Locals:         1       0       0       0       0       0       0       0       0       0       0       0       
      +0       0
  3374 ;;      Temps:          0       0       0       0       0       0       0       0       0       0       0       0       
      +0       0
  3375 ;;      Totals:         1       0       0       0       0       0       0       0       0       0       0       0       
      +0       0
  3376 ;;Total ram usage:        1 bytes
  3377 ;; Hardware stack levels used:    1
  3378 ;; This function calls:
  3379 ;;		Nothing
  3380 ;; This function is called by:
  3381 ;;		_main
  3382 ;;		_putch
  3383 ;; This function uses a non-reentrant model
  3384 ;;
  3385                           
  3386                           
  3387                           ;psect for function _EUSART_Write
  3388  074A                     _EUSART_Write:	
  3389                           
  3390                           ;incstack = 0
  3391                           ; Regs used in _EUSART_Write: [wreg]
  3392                           ;EUSART_Write@txData stored from wreg
  3393  074A  00F3               	movwf	EUSART_Write@txData
  3394  074B                     l31:	
  3395                           ;eusart.c: 100: {
  3396                           
  3397                           ;eusart.c: 99: while(0 == PIR3bits.TXIF)
  3398                           
  3399  074B  002E               	movlb	14	; select bank14
  3400  074C  1E0F               	btfss	15,4	;volatile
  3401  074D  2F4B               	goto	l31
  3402                           
  3403                           ;eusart.c: 101: }
  3404                           ;eusart.c: 103: TX1REG = txData;
  3405  074E  0873               	movf	EUSART_Write@txData,w
  3406  074F  0022               	movlb	2	; select bank2
  3407  0750  009A               	movwf	26	;volatile
  3408  0751  0008               	return
  3409  0752                     __end_of_EUSART_Write:	
  3410  007E                     btemp	set	126	;btemp
  3411  007E                     wtemp	set	126
  3412  007E                     wtemp0	set	126
  3413  0080                     wtemp1	set	128
  3414  0082                     wtemp2	set	130
  3415  0084                     wtemp3	set	132
  3416  0086                     wtemp4	set	134
  3417  0088                     wtemp5	set	136
  3418  007F                     wtemp6	set	127
  3419  007E                     ttemp	set	126
  3420  007E                     ttemp0	set	126
  3421  0081                     ttemp1	set	129
  3422  0084                     ttemp2	set	132
  3423  0087                     ttemp3	set	135
  3424  007F                     ttemp4	set	127
  3425  007E                     ltemp	set	126
  3426  007E                     ltemp0	set	126
  3427  0082                     ltemp1	set	130
  3428  0086                     ltemp2	set	134
  3429  0080                     ltemp3	set	128


Data Sizes:
    Strings     0
    Constant    0
    Data        1
    BSS         2
    Persistent  0
    Stack       0

Auto Spaces:
    Space          Size  Autos    Used
    COMMON           14      1       4
    BANK0            80      0       0
    BANK1            80      0       0
    BANK2            80      0       0
    BANK3            80      0       0
    BANK4            80      0       0
    BANK5            80      0       0
    BANK6            80      0       0
    BANK7            80      0       0
    BANK8            80      0       0
    BANK9            80      0       0
    BANK10           80      0       0
    BANK11           80      0       0
    BANK12           48      0       0

Pointer List with Targets:

    TMR6_InterruptHandler	PTR FTN()void  size(2) Largest target is 1
		 -> Absolute function(), 


Critical Paths under _main in COMMON

    _main->_EUSART_Write
    _main->_TMR6_HasOverflowOccured
    _SYSTEM_Initialize->_PIN_MANAGER_Initialize

Critical Paths under _main in BANK0

    None.

Critical Paths under _main in BANK1

    None.

Critical Paths under _main in BANK2

    None.

Critical Paths under _main in BANK3

    None.

Critical Paths under _main in BANK4

    None.

Critical Paths under _main in BANK5

    None.

Critical Paths under _main in BANK6

    None.

Critical Paths under _main in BANK7

    None.

Critical Paths under _main in BANK8

    None.

Critical Paths under _main in BANK9

    None.

Critical Paths under _main in BANK10

    None.

Critical Paths under _main in BANK11

    None.

Critical Paths under _main in BANK12

    None.

Call Graph Tables:

 ---------------------------------------------------------------------------------
 (Depth) Function   	        Calls       Base Space   Used Autos Params    Refs
 ---------------------------------------------------------------------------------
 (0) _main                                                 0     0      0      60
                       _EUSART_Write
                  _SYSTEM_Initialize
            _TMR6_HasOverflowOccured
 ---------------------------------------------------------------------------------
 (1) _TMR6_HasOverflowOccured                              1     1      0      30
                                              0 COMMON     1     1      0
 ---------------------------------------------------------------------------------
 (1) _SYSTEM_Initialize                                    0     0      0      15
                  _EUSART_Initialize
              _OSCILLATOR_Initialize
             _PIN_MANAGER_Initialize
                    _TMR6_Initialize
 ---------------------------------------------------------------------------------
 (2) _TMR6_Initialize                                      0     0      0       0
                         _TMR6_Start
 ---------------------------------------------------------------------------------
 (3) _TMR6_Start                                           0     0      0       0
 ---------------------------------------------------------------------------------
 (2) _PIN_MANAGER_Initialize                               1     1      0      15
                                              0 COMMON     1     1      0
 ---------------------------------------------------------------------------------
 (2) _OSCILLATOR_Initialize                                0     0      0       0
 ---------------------------------------------------------------------------------
 (2) _EUSART_Initialize                                    0     0      0       0
 ---------------------------------------------------------------------------------
 (1) _EUSART_Write                                         1     1      0      15
                                              0 COMMON     1     1      0
 ---------------------------------------------------------------------------------
 Estimated maximum stack depth 3
 ---------------------------------------------------------------------------------

 Call Graph Graphs:

 _main (ROOT)
   _EUSART_Write
   _SYSTEM_Initialize
     _EUSART_Initialize
     _OSCILLATOR_Initialize
     _PIN_MANAGER_Initialize
     _TMR6_Initialize
       _TMR6_Start
   _TMR6_HasOverflowOccured

 Address spaces:
Name               Size   Autos  Total    Cost      Usage
BIGRAM             3F0      0       0       0        0.0%
EEDATA             100      0       0       0        0.0%
NULL                 0      0       0       0        0.0%
CODE                 0      0       0       0        0.0%
BITCOMMON            E      0       0       1        0.0%
BITSFR0              0      0       0       1        0.0%
SFR0                 0      0       0       1        0.0%
COMMON               E      1       4       2       28.6%
BITSFR1              0      0       0       2        0.0%
SFR1                 0      0       0       2        0.0%
BITSFR2              0      0       0       3        0.0%
SFR2                 0      0       0       3        0.0%
STACK                0      0       0       3        0.0%
BITBANK0            50      0       0       4        0.0%
BITSFR3              0      0       0       4        0.0%
SFR3                 0      0       0       4        0.0%
BANK0               50      0       0       5        0.0%
BITSFR4              0      0       0       5        0.0%
SFR4                 0      0       0       5        0.0%
BITBANK1            50      0       0       6        0.0%
BITSFR5              0      0       0       6        0.0%
SFR5                 0      0       0       6        0.0%
BANK1               50      0       0       7        0.0%
BITSFR6              0      0       0       7        0.0%
SFR6                 0      0       0       7        0.0%
BITBANK2            50      0       0       8        0.0%
BITSFR7              0      0       0       8        0.0%
SFR7                 0      0       0       8        0.0%
BANK2               50      0       0       9        0.0%
BITSFR8              0      0       0       9        0.0%
SFR8                 0      0       0       9        0.0%
BITBANK3            50      0       0      10        0.0%
BITSFR9              0      0       0      10        0.0%
SFR9                 0      0       0      10        0.0%
BANK3               50      0       0      11        0.0%
BITSFR10             0      0       0      11        0.0%
SFR10                0      0       0      11        0.0%
BITBANK4            50      0       0      12        0.0%
BITSFR11             0      0       0      12        0.0%
SFR11                0      0       0      12        0.0%
BANK4               50      0       0      13        0.0%
BITSFR12             0      0       0      13        0.0%
SFR12                0      0       0      13        0.0%
BITBANK5            50      0       0      14        0.0%
BITSFR13             0      0       0      14        0.0%
SFR13                0      0       0      14        0.0%
BANK5               50      0       0      15        0.0%
BITSFR14             0      0       0      15        0.0%
SFR14                0      0       0      15        0.0%
BITBANK6            50      0       0      16        0.0%
BITSFR15             0      0       0      16        0.0%
SFR15                0      0       0      16        0.0%
BANK6               50      0       0      17        0.0%
BITSFR16             0      0       0      17        0.0%
SFR16                0      0       0      17        0.0%
BITBANK7            50      0       0      18        0.0%
BITSFR17             0      0       0      18        0.0%
SFR17                0      0       0      18        0.0%
BANK7               50      0       0      19        0.0%
BITSFR18             0      0       0      19        0.0%
SFR18                0      0       0      19        0.0%
BITSFR19             0      0       0      20        0.0%
SFR19                0      0       0      20        0.0%
ABS                  0      0       4      20        0.0%
BITBANK8            50      0       0      21        0.0%
BITSFR20             0      0       0      21        0.0%
SFR20                0      0       0      21        0.0%
BANK8               50      0       0      22        0.0%
BITSFR21             0      0       0      22        0.0%
SFR21                0      0       0      22        0.0%
BITBANK9            50      0       0      23        0.0%
BITSFR22             0      0       0      23        0.0%
SFR22                0      0       0      23        0.0%
BANK9               50      0       0      24        0.0%
BITSFR23             0      0       0      24        0.0%
SFR23                0      0       0      24        0.0%
BITBANK10           50      0       0      25        0.0%
BITSFR24             0      0       0      25        0.0%
SFR24                0      0       0      25        0.0%
BANK10              50      0       0      26        0.0%
BITSFR25             0      0       0      26        0.0%
SFR25                0      0       0      26        0.0%
BITBANK11           50      0       0      27        0.0%
BITSFR26             0      0       0      27        0.0%
SFR26                0      0       0      27        0.0%
BANK11              50      0       0      28        0.0%
BITSFR27             0      0       0      28        0.0%
SFR27                0      0       0      28        0.0%
BITBANK12           30      0       0      29        0.0%
BITSFR28             0      0       0      29        0.0%
SFR28                0      0       0      29        0.0%
BANK12              30      0       0      30        0.0%
BITSFR29             0      0       0      30        0.0%
SFR29                0      0       0      30        0.0%
BITSFR30             0      0       0      31        0.0%
SFR30                0      0       0      31        0.0%
DATA                 0      0       4      31        0.0%
BITSFR31             0      0       0      32        0.0%
SFR31                0      0       0      32        0.0%


Microchip Technology PIC Macro Assembler V1.38 build -256452561 
Symbol Table                                                                                   Tue Nov 22 17:36:15 2016

                     __CFG_CP$OFF 0000                                l31 074B   __end_of_TMR6_HasOverflowOccured 0765  
                              u10 07F6                                u80 079E                               l198 078F  
                             l792 07B1                               l786 07A0                               _GIE 005F  
                    __CFG_CPD$OFF 0000                               _PR6 0299                      __CFG_BORV$LO 0000  
                    __CFG_LVP$OFF 0000                      __CFG_ZCD$OFF 0000                              _LATA 0016  
                            _LATB 0017                              _LATC 0018                              _T6PR 0299  
                            _TMR6 0298                              _WPUA 0F39                              _WPUB 0F44  
                            _WPUC 0F4F                              _WPUE 0F65                      __CFG_WRT$OFF 0000  
                   __CFG_FCMEN$ON 0000                              _main 078C                              btemp 007E  
                   __CFG_BOREN$ON 0000                              ltemp 007E                              start 0002  
                            ttemp 007E                              wtemp 007E                     __CFG_CSWEN$ON 0000  
                   __CFG_MCLRE$ON 0000                     ?_EUSART_Write 0073    __size_of_OSCILLATOR_Initialize 0009  
   __end_of_OSCILLATOR_Initialize 075B                             ?_main 0073                     __CFG_WDTE$OFF 0000  
                           _T6CON 029A                             _T6HLT 029B                             _T6TMR 0298  
                           _T6RST 029D                             _OSCEN 0891                             _TRISA 0011  
                           _TRISB 0012                             _TRISC 0013                       ?_TMR6_Start 0073  
                           ltemp0 007E                             ltemp1 0082                             ltemp2 0086  
                           ltemp3 0080                             ttemp0 007E                             ttemp1 0081  
                           ttemp2 0084                             ttemp3 0087                             ttemp4 007F  
                           status 0003                             wtemp0 007E                             wtemp1 0080  
                           wtemp2 0082                             wtemp3 0084                             wtemp4 0086  
                           wtemp5 0088                             wtemp6 007F                   __initialization 07F8  
                    __end_of_main 07C0                    ??_EUSART_Write 0073                            ??_main 0074  
                 _TMR6_Initialize 077D                            _ANSELA 0F38                            _ANSELB 0F43  
                          _ANSELC 0F4E                            _RC1REG 0119                            _RC0PPS 0F20  
                          _RC1STA 011D                            _ODCONA 0F3A                            _ODCONB 0F45  
                          _RC6PPS 0F26                            _ODCONC 0F50                    __CFG_WDTCCS$SC 0000  
                          _OSCFRQ 0893                            _TX1REG 011A                            _TX1STA 011E  
__size_of_TMR6_HasOverflowOccured 000A                    __CFG_PWRTE$OFF 0000                    __CFG_STVREN$ON 0000  
             __size_of_TMR6_Start 0003                            _toggle 0072                      __pdataCOMMON 0072  
               _SYSTEM_Initialize 0771           __end_of__initialization 07FD                ?_SYSTEM_Initialize 0073  
                  __pcstackCOMMON 0073               ??_SYSTEM_Initialize 0074           __end_of_TMR6_Initialize 078C  
       __end_of_SYSTEM_Initialize 077D              __end_of_EUSART_Write 0752                        __pmaintext 078C  
                 __CFG_PPS1WAY$ON 0000                           _SP1BRGH 011C                           _SP1BRGL 011B  
                         _OSCCON1 088D                           _OSCCON3 088F                           _OSCTUNE 0892  
                         _PPSLOCK 0E8F                      ??_TMR6_Start 0073           _TMR6_HasOverflowOccured 075B  
                    _T6AINPPSbits 0E9E              __CFG_SCANE$available 0000                  ?_TMR6_Initialize 0073  
              __end_of_TMR6_Start 074A                           __ptext1 075B                           __ptext2 0771  
                         __ptext3 077D                           __ptext4 0747                           __ptext5 07C0  
                         __ptext6 0752                           __ptext7 0765                           __ptext8 074A  
           _OSCILLATOR_Initialize 0752          ??_PIN_MANAGER_Initialize 0073                         _T6CONbits 029A  
                       _T6HLTbits 029B        __size_of_SYSTEM_Initialize 000C              end_of_initialization 07FD  
                       _T6RSTbits 029D                 _EUSART_Initialize 0765                ?_EUSART_Initialize 0073  
           __CFG_WDTCPS$WDTCPS_31 0000               ??_EUSART_Initialize 0073     TMR6_HasOverflowOccured@status 0073  
           __size_of_EUSART_Write 0008         ??_TMR6_HasOverflowOccured 0073                  __CFG_FEXTOSC$OFF 0000  
       __end_of_EUSART_Initialize 0771                     __pidataCOMMON 0746                      _EUSART_Write 074A  
          ?_OSCILLATOR_Initialize 0073               start_initialization 07F8   __size_of_PIN_MANAGER_Initialize 0038  
                __CFG_LPBOREN$OFF 0000                       __pbssCOMMON 0070                         ___latbits 0002  
      __size_of_EUSART_Initialize 000C             _TMR6_InterruptHandler 0070            _PIN_MANAGER_Initialize 07C0  
                        _BAUD1CON 011F              __CFG_RSTOSC$HFINTPLL 0000                          _T6CLKCON 029C  
                        _LATAbits 0016                          _PIR3bits 070F                          _PIR4bits 0710  
        __size_of_TMR6_Initialize 000F           ??_OSCILLATOR_Initialize 0073                     __size_of_main 0034  
            __CFG_WDTCWS$WDTCWS_7 0000                        _RC1STAbits 011D       PIN_MANAGER_Initialize@state 0073  
        ?_TMR6_HasOverflowOccured 0073           ?_PIN_MANAGER_Initialize 0073                 ??_TMR6_Initialize 0073  
               __CFG_CLKOUTEN$OFF 0000                       _PPSLOCKbits 0E8F                        _TMR6_Start 0747  
              EUSART_Write@txData 0073    __end_of_PIN_MANAGER_Initialize 07F8  
